;******************************************************************************
;* TI ARM C/C++ Codegen                                        PC v18.1.4.LTS *
;* Date/Time created: Tue Oct  8 13:14:21 2019                                *
;******************************************************************************
	.compiler_opts --abi=eabi --arm_vmrs_si_workaround=off --code_state=16 --diag_wrap=off --embedded_constants=on --endian=little --float_support=FPv4SPD16 --hll_source=on --object_format=elf --silicon_version=7M4 --symdebug:dwarf --symdebug:dwarf_version=3 --unaligned_access=on 
	.thumb

$C$DW$CU	.dwtag  DW_TAG_compile_unit
	.dwattr $C$DW$CU, DW_AT_name("../main.c")
	.dwattr $C$DW$CU, DW_AT_producer("TI TI ARM C/C++ Codegen PC v18.1.4.LTS Copyright (c) 1996-2018 Texas Instruments Incorporated")
	.dwattr $C$DW$CU, DW_AT_TI_version(0x01)
	.dwattr $C$DW$CU, DW_AT_comp_dir("C:\Users\pante\Desktop\simon_PSP\Debug")
	.bss	previousSnap$1,4,4

$C$DW$1	.dwtag  DW_TAG_subprogram
	.dwattr $C$DW$1, DW_AT_name("Timer32_getValue")
	.dwattr $C$DW$1, DW_AT_TI_symbol_name("Timer32_getValue")
	.dwattr $C$DW$1, DW_AT_type(*$C$DW$T$23)
	.dwattr $C$DW$1, DW_AT_declaration
	.dwattr $C$DW$1, DW_AT_external
	.dwattr $C$DW$1, DW_AT_decl_file("C:/ti/simplelink_msp432p4_sdk_1_60_00_12/source/ti/devices/msp432p4xx/driverlib/timer32.h")
	.dwattr $C$DW$1, DW_AT_decl_line(0xb4)
	.dwattr $C$DW$1, DW_AT_decl_column(0x11)
$C$DW$2	.dwtag  DW_TAG_formal_parameter
	.dwattr $C$DW$2, DW_AT_type(*$C$DW$T$23)

	.dwendtag $C$DW$1


$C$DW$3	.dwtag  DW_TAG_subprogram
	.dwattr $C$DW$3, DW_AT_name("Timer32_initModule")
	.dwattr $C$DW$3, DW_AT_TI_symbol_name("Timer32_initModule")
	.dwattr $C$DW$3, DW_AT_declaration
	.dwattr $C$DW$3, DW_AT_external
	.dwattr $C$DW$3, DW_AT_decl_file("C:/ti/simplelink_msp432p4_sdk_1_60_00_12/source/ti/devices/msp432p4xx/driverlib/timer32.h")
	.dwattr $C$DW$3, DW_AT_decl_line(0x77)
	.dwattr $C$DW$3, DW_AT_decl_column(0x0d)
$C$DW$4	.dwtag  DW_TAG_formal_parameter
	.dwattr $C$DW$4, DW_AT_type(*$C$DW$T$23)

$C$DW$5	.dwtag  DW_TAG_formal_parameter
	.dwattr $C$DW$5, DW_AT_type(*$C$DW$T$23)

$C$DW$6	.dwtag  DW_TAG_formal_parameter
	.dwattr $C$DW$6, DW_AT_type(*$C$DW$T$23)

$C$DW$7	.dwtag  DW_TAG_formal_parameter
	.dwattr $C$DW$7, DW_AT_type(*$C$DW$T$23)

	.dwendtag $C$DW$3


$C$DW$8	.dwtag  DW_TAG_subprogram
	.dwattr $C$DW$8, DW_AT_name("Timer32_startTimer")
	.dwattr $C$DW$8, DW_AT_TI_symbol_name("Timer32_startTimer")
	.dwattr $C$DW$8, DW_AT_declaration
	.dwattr $C$DW$8, DW_AT_external
	.dwattr $C$DW$8, DW_AT_decl_file("C:/ti/simplelink_msp432p4_sdk_1_60_00_12/source/ti/devices/msp432p4xx/driverlib/timer32.h")
	.dwattr $C$DW$8, DW_AT_decl_line(0xce)
	.dwattr $C$DW$8, DW_AT_decl_column(0x0d)
$C$DW$9	.dwtag  DW_TAG_formal_parameter
	.dwattr $C$DW$9, DW_AT_type(*$C$DW$T$23)

$C$DW$10	.dwtag  DW_TAG_formal_parameter
	.dwattr $C$DW$10, DW_AT_type(*$C$DW$T$271)

	.dwendtag $C$DW$8


$C$DW$11	.dwtag  DW_TAG_subprogram
	.dwattr $C$DW$11, DW_AT_name("printf")
	.dwattr $C$DW$11, DW_AT_TI_symbol_name("printf")
	.dwattr $C$DW$11, DW_AT_type(*$C$DW$T$10)
	.dwattr $C$DW$11, DW_AT_declaration
	.dwattr $C$DW$11, DW_AT_external
	.dwattr $C$DW$11, DW_AT_decl_file("C:/ti/ccsv8/tools/compiler/ti-cgt-arm_18.1.4.LTS/include/stdio.h")
	.dwattr $C$DW$11, DW_AT_decl_line(0xe9)
	.dwattr $C$DW$11, DW_AT_decl_column(0x19)
$C$DW$12	.dwtag  DW_TAG_formal_parameter
	.dwattr $C$DW$12, DW_AT_type(*$C$DW$T$307)

$C$DW$13	.dwtag  DW_TAG_unspecified_parameters

	.dwendtag $C$DW$11

;	C:\ti\ccsv8\tools\compiler\ti-cgt-arm_18.1.4.LTS\bin\armacpia.exe -@C:\\Users\\pante\\AppData\\Local\\Temp\\{FD6FB361-3E15-4B8F-86F4-7FBC93E5F05D} 
	.sect	".text"
	.clink
	.thumbfunc simon
	.thumb
	.global	simon

$C$DW$14	.dwtag  DW_TAG_subprogram
	.dwattr $C$DW$14, DW_AT_name("simon")
	.dwattr $C$DW$14, DW_AT_low_pc(simon)
	.dwattr $C$DW$14, DW_AT_high_pc(0x00)
	.dwattr $C$DW$14, DW_AT_TI_symbol_name("simon")
	.dwattr $C$DW$14, DW_AT_external
	.dwattr $C$DW$14, DW_AT_TI_begin_file("..\simon_clk.h")
	.dwattr $C$DW$14, DW_AT_TI_begin_line(0x07)
	.dwattr $C$DW$14, DW_AT_TI_begin_column(0x06)
	.dwattr $C$DW$14, DW_AT_decl_file("..\simon_clk.h")
	.dwattr $C$DW$14, DW_AT_decl_line(0x07)
	.dwattr $C$DW$14, DW_AT_decl_column(0x06)
	.dwattr $C$DW$14, DW_AT_TI_max_frame_size(0x1490)
	.dwpsn	file "..\simon_clk.h",line 8,column 1,is_stmt,address simon,isa 1

	.dwfde $C$DW$CIE, simon
$C$DW$15	.dwtag  DW_TAG_formal_parameter
	.dwattr $C$DW$15, DW_AT_name("clk")
	.dwattr $C$DW$15, DW_AT_TI_symbol_name("clk")
	.dwattr $C$DW$15, DW_AT_type(*$C$DW$T$10)
	.dwattr $C$DW$15, DW_AT_location[DW_OP_reg0]

$C$DW$16	.dwtag  DW_TAG_formal_parameter
	.dwattr $C$DW$16, DW_AT_name("rst")
	.dwattr $C$DW$16, DW_AT_TI_symbol_name("rst")
	.dwattr $C$DW$16, DW_AT_type(*$C$DW$T$10)
	.dwattr $C$DW$16, DW_AT_location[DW_OP_reg1]

$C$DW$17	.dwtag  DW_TAG_formal_parameter
	.dwattr $C$DW$17, DW_AT_name("encNdec")
	.dwattr $C$DW$17, DW_AT_TI_symbol_name("encNdec")
	.dwattr $C$DW$17, DW_AT_type(*$C$DW$T$10)
	.dwattr $C$DW$17, DW_AT_location[DW_OP_reg2]

$C$DW$18	.dwtag  DW_TAG_formal_parameter
	.dwattr $C$DW$18, DW_AT_name("dataIn")
	.dwattr $C$DW$18, DW_AT_TI_symbol_name("dataIn")
	.dwattr $C$DW$18, DW_AT_type(*$C$DW$T$274)
	.dwattr $C$DW$18, DW_AT_location[DW_OP_reg3]

$C$DW$19	.dwtag  DW_TAG_formal_parameter
	.dwattr $C$DW$19, DW_AT_name("key")
	.dwattr $C$DW$19, DW_AT_TI_symbol_name("key")
	.dwattr $C$DW$19, DW_AT_type(*$C$DW$T$274)
	.dwattr $C$DW$19, DW_AT_location[DW_OP_breg13 5264]

$C$DW$20	.dwtag  DW_TAG_formal_parameter
	.dwattr $C$DW$20, DW_AT_name("done")
	.dwattr $C$DW$20, DW_AT_TI_symbol_name("done")
	.dwattr $C$DW$20, DW_AT_type(*$C$DW$T$274)
	.dwattr $C$DW$20, DW_AT_location[DW_OP_breg13 5268]

$C$DW$21	.dwtag  DW_TAG_formal_parameter
	.dwattr $C$DW$21, DW_AT_name("dataOut")
	.dwattr $C$DW$21, DW_AT_TI_symbol_name("dataOut")
	.dwattr $C$DW$21, DW_AT_type(*$C$DW$T$274)
	.dwattr $C$DW$21, DW_AT_location[DW_OP_breg13 5272]


;*****************************************************************************
;* FUNCTION NAME: simon                                                      *
;*                                                                           *
;*   Regs Modified     : A1,A2,A3,V4,V9,SP,SR                                *
;*   Regs Used         : A1,A2,A3,A4,V4,V9,SP,LR,SR                          *
;*   Local Frame Size  : 0 Args + 5252 Auto + 8 Save = 5260 byte             *
;*****************************************************************************
simon:
;* --------------------------------------------------------------------------*
	.dwcfi	cfa_offset, 0
        LDR       V9, $C$CON1           ; [DPU_V7M3_PIPE] 
        PUSH      {V4, LR}              ; [DPU_V7M3_PIPE] 
	.dwcfi	cfa_offset, 8
	.dwcfi	save_reg_to_mem, 14, -4
	.dwcfi	save_reg_to_mem, 7, -8
        ADD       V4, SP, #8            ; [DPU_V7M3_PIPE] 
        ADD       SP, SP, V9            ; [DPU_V7M3_PIPE] 
	.dwcfi	cfa_offset, 5264
$C$DW$22	.dwtag  DW_TAG_variable
	.dwattr $C$DW$22, DW_AT_name("n0002_")
	.dwattr $C$DW$22, DW_AT_TI_symbol_name("n0002_")
	.dwattr $C$DW$22, DW_AT_type(*$C$DW$T$312)
	.dwattr $C$DW$22, DW_AT_location[DW_OP_breg13 0]

$C$DW$23	.dwtag  DW_TAG_variable
	.dwattr $C$DW$23, DW_AT_name("n0003_")
	.dwattr $C$DW$23, DW_AT_TI_symbol_name("n0003_")
	.dwattr $C$DW$23, DW_AT_type(*$C$DW$T$312)
	.dwattr $C$DW$23, DW_AT_location[DW_OP_breg13 256]

$C$DW$24	.dwtag  DW_TAG_variable
	.dwattr $C$DW$24, DW_AT_name("left_beg")
	.dwattr $C$DW$24, DW_AT_TI_symbol_name("left_beg")
	.dwattr $C$DW$24, DW_AT_type(*$C$DW$T$312)
	.dwattr $C$DW$24, DW_AT_location[DW_OP_breg13 512]

$C$DW$25	.dwtag  DW_TAG_variable
	.dwattr $C$DW$25, DW_AT_name("right_beg")
	.dwattr $C$DW$25, DW_AT_TI_symbol_name("right_beg")
	.dwattr $C$DW$25, DW_AT_type(*$C$DW$T$312)
	.dwattr $C$DW$25, DW_AT_location[DW_OP_breg13 768]

$C$DW$26	.dwtag  DW_TAG_variable
	.dwattr $C$DW$26, DW_AT_name("n0000_")
	.dwattr $C$DW$26, DW_AT_TI_symbol_name("n0000_")
	.dwattr $C$DW$26, DW_AT_type(*$C$DW$T$311)
	.dwattr $C$DW$26, DW_AT_location[DW_OP_breg13 1024]

$C$DW$27	.dwtag  DW_TAG_variable
	.dwattr $C$DW$27, DW_AT_name("cnt")
	.dwattr $C$DW$27, DW_AT_TI_symbol_name("cnt")
	.dwattr $C$DW$27, DW_AT_type(*$C$DW$T$311)
	.dwattr $C$DW$27, DW_AT_location[DW_OP_breg13 1052]

$C$DW$28	.dwtag  DW_TAG_variable
	.dwattr $C$DW$28, DW_AT_name("clk")
	.dwattr $C$DW$28, DW_AT_TI_symbol_name("clk")
	.dwattr $C$DW$28, DW_AT_type(*$C$DW$T$10)
	.dwattr $C$DW$28, DW_AT_location[DW_OP_breg13 1080]

$C$DW$29	.dwtag  DW_TAG_variable
	.dwattr $C$DW$29, DW_AT_name("rst")
	.dwattr $C$DW$29, DW_AT_TI_symbol_name("rst")
	.dwattr $C$DW$29, DW_AT_type(*$C$DW$T$10)
	.dwattr $C$DW$29, DW_AT_location[DW_OP_breg13 1084]

$C$DW$30	.dwtag  DW_TAG_variable
	.dwattr $C$DW$30, DW_AT_name("encNdec")
	.dwattr $C$DW$30, DW_AT_TI_symbol_name("encNdec")
	.dwattr $C$DW$30, DW_AT_type(*$C$DW$T$10)
	.dwattr $C$DW$30, DW_AT_location[DW_OP_breg13 1088]

$C$DW$31	.dwtag  DW_TAG_variable
	.dwattr $C$DW$31, DW_AT_name("dataIn")
	.dwattr $C$DW$31, DW_AT_TI_symbol_name("dataIn")
	.dwattr $C$DW$31, DW_AT_type(*$C$DW$T$274)
	.dwattr $C$DW$31, DW_AT_location[DW_OP_breg13 1092]

$C$DW$32	.dwtag  DW_TAG_variable
	.dwattr $C$DW$32, DW_AT_name("n0001_")
	.dwattr $C$DW$32, DW_AT_TI_symbol_name("n0001_")
	.dwattr $C$DW$32, DW_AT_type(*$C$DW$T$10)
	.dwattr $C$DW$32, DW_AT_location[DW_OP_breg13 1096]

$C$DW$33	.dwtag  DW_TAG_variable
	.dwattr $C$DW$33, DW_AT_name("n0004_")
	.dwattr $C$DW$33, DW_AT_TI_symbol_name("n0004_")
	.dwattr $C$DW$33, DW_AT_type(*$C$DW$T$10)
	.dwattr $C$DW$33, DW_AT_location[DW_OP_breg13 1100]

$C$DW$34	.dwtag  DW_TAG_variable
	.dwattr $C$DW$34, DW_AT_name("n0005_")
	.dwattr $C$DW$34, DW_AT_TI_symbol_name("n0005_")
	.dwattr $C$DW$34, DW_AT_type(*$C$DW$T$10)
	.dwattr $C$DW$34, DW_AT_location[DW_OP_breg13 1104]

$C$DW$35	.dwtag  DW_TAG_variable
	.dwattr $C$DW$35, DW_AT_name("n0006_")
	.dwattr $C$DW$35, DW_AT_TI_symbol_name("n0006_")
	.dwattr $C$DW$35, DW_AT_type(*$C$DW$T$10)
	.dwattr $C$DW$35, DW_AT_location[DW_OP_breg13 1108]

$C$DW$36	.dwtag  DW_TAG_variable
	.dwattr $C$DW$36, DW_AT_name("n0007_")
	.dwattr $C$DW$36, DW_AT_TI_symbol_name("n0007_")
	.dwattr $C$DW$36, DW_AT_type(*$C$DW$T$10)
	.dwattr $C$DW$36, DW_AT_location[DW_OP_breg13 1112]

$C$DW$37	.dwtag  DW_TAG_variable
	.dwattr $C$DW$37, DW_AT_name("n0008_")
	.dwattr $C$DW$37, DW_AT_TI_symbol_name("n0008_")
	.dwattr $C$DW$37, DW_AT_type(*$C$DW$T$10)
	.dwattr $C$DW$37, DW_AT_location[DW_OP_breg13 1116]

$C$DW$38	.dwtag  DW_TAG_variable
	.dwattr $C$DW$38, DW_AT_name("n0009_")
	.dwattr $C$DW$38, DW_AT_TI_symbol_name("n0009_")
	.dwattr $C$DW$38, DW_AT_type(*$C$DW$T$10)
	.dwattr $C$DW$38, DW_AT_location[DW_OP_breg13 1120]

$C$DW$39	.dwtag  DW_TAG_variable
	.dwattr $C$DW$39, DW_AT_name("n0010_")
	.dwattr $C$DW$39, DW_AT_TI_symbol_name("n0010_")
	.dwattr $C$DW$39, DW_AT_type(*$C$DW$T$10)
	.dwattr $C$DW$39, DW_AT_location[DW_OP_breg13 1124]

$C$DW$40	.dwtag  DW_TAG_variable
	.dwattr $C$DW$40, DW_AT_name("n0011_")
	.dwattr $C$DW$40, DW_AT_TI_symbol_name("n0011_")
	.dwattr $C$DW$40, DW_AT_type(*$C$DW$T$10)
	.dwattr $C$DW$40, DW_AT_location[DW_OP_breg13 1128]

$C$DW$41	.dwtag  DW_TAG_variable
	.dwattr $C$DW$41, DW_AT_name("n0012_")
	.dwattr $C$DW$41, DW_AT_TI_symbol_name("n0012_")
	.dwattr $C$DW$41, DW_AT_type(*$C$DW$T$10)
	.dwattr $C$DW$41, DW_AT_location[DW_OP_breg13 1132]

$C$DW$42	.dwtag  DW_TAG_variable
	.dwattr $C$DW$42, DW_AT_name("n0013_")
	.dwattr $C$DW$42, DW_AT_TI_symbol_name("n0013_")
	.dwattr $C$DW$42, DW_AT_type(*$C$DW$T$10)
	.dwattr $C$DW$42, DW_AT_location[DW_OP_breg13 1136]

$C$DW$43	.dwtag  DW_TAG_variable
	.dwattr $C$DW$43, DW_AT_name("n0014_")
	.dwattr $C$DW$43, DW_AT_TI_symbol_name("n0014_")
	.dwattr $C$DW$43, DW_AT_type(*$C$DW$T$10)
	.dwattr $C$DW$43, DW_AT_location[DW_OP_breg13 1140]

$C$DW$44	.dwtag  DW_TAG_variable
	.dwattr $C$DW$44, DW_AT_name("n0015_")
	.dwattr $C$DW$44, DW_AT_TI_symbol_name("n0015_")
	.dwattr $C$DW$44, DW_AT_type(*$C$DW$T$10)
	.dwattr $C$DW$44, DW_AT_location[DW_OP_breg13 1144]

$C$DW$45	.dwtag  DW_TAG_variable
	.dwattr $C$DW$45, DW_AT_name("n0016_")
	.dwattr $C$DW$45, DW_AT_TI_symbol_name("n0016_")
	.dwattr $C$DW$45, DW_AT_type(*$C$DW$T$10)
	.dwattr $C$DW$45, DW_AT_location[DW_OP_breg13 1148]

$C$DW$46	.dwtag  DW_TAG_variable
	.dwattr $C$DW$46, DW_AT_name("n0017_")
	.dwattr $C$DW$46, DW_AT_TI_symbol_name("n0017_")
	.dwattr $C$DW$46, DW_AT_type(*$C$DW$T$10)
	.dwattr $C$DW$46, DW_AT_location[DW_OP_breg13 1152]

$C$DW$47	.dwtag  DW_TAG_variable
	.dwattr $C$DW$47, DW_AT_name("n0018_")
	.dwattr $C$DW$47, DW_AT_TI_symbol_name("n0018_")
	.dwattr $C$DW$47, DW_AT_type(*$C$DW$T$10)
	.dwattr $C$DW$47, DW_AT_location[DW_OP_breg13 1156]

$C$DW$48	.dwtag  DW_TAG_variable
	.dwattr $C$DW$48, DW_AT_name("n0019_")
	.dwattr $C$DW$48, DW_AT_TI_symbol_name("n0019_")
	.dwattr $C$DW$48, DW_AT_type(*$C$DW$T$10)
	.dwattr $C$DW$48, DW_AT_location[DW_OP_breg13 1160]

$C$DW$49	.dwtag  DW_TAG_variable
	.dwattr $C$DW$49, DW_AT_name("n0020_")
	.dwattr $C$DW$49, DW_AT_TI_symbol_name("n0020_")
	.dwattr $C$DW$49, DW_AT_type(*$C$DW$T$10)
	.dwattr $C$DW$49, DW_AT_location[DW_OP_breg13 1164]

$C$DW$50	.dwtag  DW_TAG_variable
	.dwattr $C$DW$50, DW_AT_name("n0021_")
	.dwattr $C$DW$50, DW_AT_TI_symbol_name("n0021_")
	.dwattr $C$DW$50, DW_AT_type(*$C$DW$T$10)
	.dwattr $C$DW$50, DW_AT_location[DW_OP_breg13 1168]

$C$DW$51	.dwtag  DW_TAG_variable
	.dwattr $C$DW$51, DW_AT_name("n0022_")
	.dwattr $C$DW$51, DW_AT_TI_symbol_name("n0022_")
	.dwattr $C$DW$51, DW_AT_type(*$C$DW$T$10)
	.dwattr $C$DW$51, DW_AT_location[DW_OP_breg13 1172]

$C$DW$52	.dwtag  DW_TAG_variable
	.dwattr $C$DW$52, DW_AT_name("n0023_")
	.dwattr $C$DW$52, DW_AT_TI_symbol_name("n0023_")
	.dwattr $C$DW$52, DW_AT_type(*$C$DW$T$10)
	.dwattr $C$DW$52, DW_AT_location[DW_OP_breg13 1176]

$C$DW$53	.dwtag  DW_TAG_variable
	.dwattr $C$DW$53, DW_AT_name("n0024_")
	.dwattr $C$DW$53, DW_AT_TI_symbol_name("n0024_")
	.dwattr $C$DW$53, DW_AT_type(*$C$DW$T$10)
	.dwattr $C$DW$53, DW_AT_location[DW_OP_breg13 1180]

$C$DW$54	.dwtag  DW_TAG_variable
	.dwattr $C$DW$54, DW_AT_name("n0025_")
	.dwattr $C$DW$54, DW_AT_TI_symbol_name("n0025_")
	.dwattr $C$DW$54, DW_AT_type(*$C$DW$T$10)
	.dwattr $C$DW$54, DW_AT_location[DW_OP_breg13 1184]

$C$DW$55	.dwtag  DW_TAG_variable
	.dwattr $C$DW$55, DW_AT_name("n0026_")
	.dwattr $C$DW$55, DW_AT_TI_symbol_name("n0026_")
	.dwattr $C$DW$55, DW_AT_type(*$C$DW$T$10)
	.dwattr $C$DW$55, DW_AT_location[DW_OP_breg13 1188]

$C$DW$56	.dwtag  DW_TAG_variable
	.dwattr $C$DW$56, DW_AT_name("n0027_")
	.dwattr $C$DW$56, DW_AT_TI_symbol_name("n0027_")
	.dwattr $C$DW$56, DW_AT_type(*$C$DW$T$10)
	.dwattr $C$DW$56, DW_AT_location[DW_OP_breg13 1192]

$C$DW$57	.dwtag  DW_TAG_variable
	.dwattr $C$DW$57, DW_AT_name("n0028_")
	.dwattr $C$DW$57, DW_AT_TI_symbol_name("n0028_")
	.dwattr $C$DW$57, DW_AT_type(*$C$DW$T$10)
	.dwattr $C$DW$57, DW_AT_location[DW_OP_breg13 1196]

$C$DW$58	.dwtag  DW_TAG_variable
	.dwattr $C$DW$58, DW_AT_name("n0029_")
	.dwattr $C$DW$58, DW_AT_TI_symbol_name("n0029_")
	.dwattr $C$DW$58, DW_AT_type(*$C$DW$T$10)
	.dwattr $C$DW$58, DW_AT_location[DW_OP_breg13 1200]

$C$DW$59	.dwtag  DW_TAG_variable
	.dwattr $C$DW$59, DW_AT_name("n0030_")
	.dwattr $C$DW$59, DW_AT_TI_symbol_name("n0030_")
	.dwattr $C$DW$59, DW_AT_type(*$C$DW$T$10)
	.dwattr $C$DW$59, DW_AT_location[DW_OP_breg13 1204]

$C$DW$60	.dwtag  DW_TAG_variable
	.dwattr $C$DW$60, DW_AT_name("n0031_")
	.dwattr $C$DW$60, DW_AT_TI_symbol_name("n0031_")
	.dwattr $C$DW$60, DW_AT_type(*$C$DW$T$10)
	.dwattr $C$DW$60, DW_AT_location[DW_OP_breg13 1208]

$C$DW$61	.dwtag  DW_TAG_variable
	.dwattr $C$DW$61, DW_AT_name("n0032_")
	.dwattr $C$DW$61, DW_AT_TI_symbol_name("n0032_")
	.dwattr $C$DW$61, DW_AT_type(*$C$DW$T$10)
	.dwattr $C$DW$61, DW_AT_location[DW_OP_breg13 1212]

$C$DW$62	.dwtag  DW_TAG_variable
	.dwattr $C$DW$62, DW_AT_name("n0033_")
	.dwattr $C$DW$62, DW_AT_TI_symbol_name("n0033_")
	.dwattr $C$DW$62, DW_AT_type(*$C$DW$T$10)
	.dwattr $C$DW$62, DW_AT_location[DW_OP_breg13 1216]

$C$DW$63	.dwtag  DW_TAG_variable
	.dwattr $C$DW$63, DW_AT_name("n0034_")
	.dwattr $C$DW$63, DW_AT_TI_symbol_name("n0034_")
	.dwattr $C$DW$63, DW_AT_type(*$C$DW$T$10)
	.dwattr $C$DW$63, DW_AT_location[DW_OP_breg13 1220]

$C$DW$64	.dwtag  DW_TAG_variable
	.dwattr $C$DW$64, DW_AT_name("n0035_")
	.dwattr $C$DW$64, DW_AT_TI_symbol_name("n0035_")
	.dwattr $C$DW$64, DW_AT_type(*$C$DW$T$10)
	.dwattr $C$DW$64, DW_AT_location[DW_OP_breg13 1224]

$C$DW$65	.dwtag  DW_TAG_variable
	.dwattr $C$DW$65, DW_AT_name("n0036_")
	.dwattr $C$DW$65, DW_AT_TI_symbol_name("n0036_")
	.dwattr $C$DW$65, DW_AT_type(*$C$DW$T$10)
	.dwattr $C$DW$65, DW_AT_location[DW_OP_breg13 1228]

$C$DW$66	.dwtag  DW_TAG_variable
	.dwattr $C$DW$66, DW_AT_name("n0037_")
	.dwattr $C$DW$66, DW_AT_TI_symbol_name("n0037_")
	.dwattr $C$DW$66, DW_AT_type(*$C$DW$T$10)
	.dwattr $C$DW$66, DW_AT_location[DW_OP_breg13 1232]

$C$DW$67	.dwtag  DW_TAG_variable
	.dwattr $C$DW$67, DW_AT_name("n0038_")
	.dwattr $C$DW$67, DW_AT_TI_symbol_name("n0038_")
	.dwattr $C$DW$67, DW_AT_type(*$C$DW$T$10)
	.dwattr $C$DW$67, DW_AT_location[DW_OP_breg13 1236]

$C$DW$68	.dwtag  DW_TAG_variable
	.dwattr $C$DW$68, DW_AT_name("n0039_")
	.dwattr $C$DW$68, DW_AT_TI_symbol_name("n0039_")
	.dwattr $C$DW$68, DW_AT_type(*$C$DW$T$10)
	.dwattr $C$DW$68, DW_AT_location[DW_OP_breg13 1240]

$C$DW$69	.dwtag  DW_TAG_variable
	.dwattr $C$DW$69, DW_AT_name("n0040_")
	.dwattr $C$DW$69, DW_AT_TI_symbol_name("n0040_")
	.dwattr $C$DW$69, DW_AT_type(*$C$DW$T$10)
	.dwattr $C$DW$69, DW_AT_location[DW_OP_breg13 1244]

$C$DW$70	.dwtag  DW_TAG_variable
	.dwattr $C$DW$70, DW_AT_name("n0041_")
	.dwattr $C$DW$70, DW_AT_TI_symbol_name("n0041_")
	.dwattr $C$DW$70, DW_AT_type(*$C$DW$T$10)
	.dwattr $C$DW$70, DW_AT_location[DW_OP_breg13 1248]

$C$DW$71	.dwtag  DW_TAG_variable
	.dwattr $C$DW$71, DW_AT_name("n0042_")
	.dwattr $C$DW$71, DW_AT_TI_symbol_name("n0042_")
	.dwattr $C$DW$71, DW_AT_type(*$C$DW$T$10)
	.dwattr $C$DW$71, DW_AT_location[DW_OP_breg13 1252]

$C$DW$72	.dwtag  DW_TAG_variable
	.dwattr $C$DW$72, DW_AT_name("n0043_")
	.dwattr $C$DW$72, DW_AT_TI_symbol_name("n0043_")
	.dwattr $C$DW$72, DW_AT_type(*$C$DW$T$10)
	.dwattr $C$DW$72, DW_AT_location[DW_OP_breg13 1256]

$C$DW$73	.dwtag  DW_TAG_variable
	.dwattr $C$DW$73, DW_AT_name("n0044_")
	.dwattr $C$DW$73, DW_AT_TI_symbol_name("n0044_")
	.dwattr $C$DW$73, DW_AT_type(*$C$DW$T$10)
	.dwattr $C$DW$73, DW_AT_location[DW_OP_breg13 1260]

$C$DW$74	.dwtag  DW_TAG_variable
	.dwattr $C$DW$74, DW_AT_name("n0045_")
	.dwattr $C$DW$74, DW_AT_TI_symbol_name("n0045_")
	.dwattr $C$DW$74, DW_AT_type(*$C$DW$T$10)
	.dwattr $C$DW$74, DW_AT_location[DW_OP_breg13 1264]

$C$DW$75	.dwtag  DW_TAG_variable
	.dwattr $C$DW$75, DW_AT_name("n0046_")
	.dwattr $C$DW$75, DW_AT_TI_symbol_name("n0046_")
	.dwattr $C$DW$75, DW_AT_type(*$C$DW$T$10)
	.dwattr $C$DW$75, DW_AT_location[DW_OP_breg13 1268]

$C$DW$76	.dwtag  DW_TAG_variable
	.dwattr $C$DW$76, DW_AT_name("n0047_")
	.dwattr $C$DW$76, DW_AT_TI_symbol_name("n0047_")
	.dwattr $C$DW$76, DW_AT_type(*$C$DW$T$10)
	.dwattr $C$DW$76, DW_AT_location[DW_OP_breg13 1272]

$C$DW$77	.dwtag  DW_TAG_variable
	.dwattr $C$DW$77, DW_AT_name("n0048_")
	.dwattr $C$DW$77, DW_AT_TI_symbol_name("n0048_")
	.dwattr $C$DW$77, DW_AT_type(*$C$DW$T$10)
	.dwattr $C$DW$77, DW_AT_location[DW_OP_breg13 1276]

$C$DW$78	.dwtag  DW_TAG_variable
	.dwattr $C$DW$78, DW_AT_name("n0049_")
	.dwattr $C$DW$78, DW_AT_TI_symbol_name("n0049_")
	.dwattr $C$DW$78, DW_AT_type(*$C$DW$T$10)
	.dwattr $C$DW$78, DW_AT_location[DW_OP_breg13 1280]

$C$DW$79	.dwtag  DW_TAG_variable
	.dwattr $C$DW$79, DW_AT_name("n0050_")
	.dwattr $C$DW$79, DW_AT_TI_symbol_name("n0050_")
	.dwattr $C$DW$79, DW_AT_type(*$C$DW$T$10)
	.dwattr $C$DW$79, DW_AT_location[DW_OP_breg13 1284]

$C$DW$80	.dwtag  DW_TAG_variable
	.dwattr $C$DW$80, DW_AT_name("n0051_")
	.dwattr $C$DW$80, DW_AT_TI_symbol_name("n0051_")
	.dwattr $C$DW$80, DW_AT_type(*$C$DW$T$10)
	.dwattr $C$DW$80, DW_AT_location[DW_OP_breg13 1288]

$C$DW$81	.dwtag  DW_TAG_variable
	.dwattr $C$DW$81, DW_AT_name("n0052_")
	.dwattr $C$DW$81, DW_AT_TI_symbol_name("n0052_")
	.dwattr $C$DW$81, DW_AT_type(*$C$DW$T$10)
	.dwattr $C$DW$81, DW_AT_location[DW_OP_breg13 1292]

$C$DW$82	.dwtag  DW_TAG_variable
	.dwattr $C$DW$82, DW_AT_name("n0053_")
	.dwattr $C$DW$82, DW_AT_TI_symbol_name("n0053_")
	.dwattr $C$DW$82, DW_AT_type(*$C$DW$T$10)
	.dwattr $C$DW$82, DW_AT_location[DW_OP_breg13 1296]

$C$DW$83	.dwtag  DW_TAG_variable
	.dwattr $C$DW$83, DW_AT_name("n0054_")
	.dwattr $C$DW$83, DW_AT_TI_symbol_name("n0054_")
	.dwattr $C$DW$83, DW_AT_type(*$C$DW$T$10)
	.dwattr $C$DW$83, DW_AT_location[DW_OP_breg13 1300]

$C$DW$84	.dwtag  DW_TAG_variable
	.dwattr $C$DW$84, DW_AT_name("n0055_")
	.dwattr $C$DW$84, DW_AT_TI_symbol_name("n0055_")
	.dwattr $C$DW$84, DW_AT_type(*$C$DW$T$10)
	.dwattr $C$DW$84, DW_AT_location[DW_OP_breg13 1304]

$C$DW$85	.dwtag  DW_TAG_variable
	.dwattr $C$DW$85, DW_AT_name("n0056_")
	.dwattr $C$DW$85, DW_AT_TI_symbol_name("n0056_")
	.dwattr $C$DW$85, DW_AT_type(*$C$DW$T$10)
	.dwattr $C$DW$85, DW_AT_location[DW_OP_breg13 1308]

$C$DW$86	.dwtag  DW_TAG_variable
	.dwattr $C$DW$86, DW_AT_name("n0057_")
	.dwattr $C$DW$86, DW_AT_TI_symbol_name("n0057_")
	.dwattr $C$DW$86, DW_AT_type(*$C$DW$T$10)
	.dwattr $C$DW$86, DW_AT_location[DW_OP_breg13 1312]

$C$DW$87	.dwtag  DW_TAG_variable
	.dwattr $C$DW$87, DW_AT_name("n0058_")
	.dwattr $C$DW$87, DW_AT_TI_symbol_name("n0058_")
	.dwattr $C$DW$87, DW_AT_type(*$C$DW$T$10)
	.dwattr $C$DW$87, DW_AT_location[DW_OP_breg13 1316]

$C$DW$88	.dwtag  DW_TAG_variable
	.dwattr $C$DW$88, DW_AT_name("n0059_")
	.dwattr $C$DW$88, DW_AT_TI_symbol_name("n0059_")
	.dwattr $C$DW$88, DW_AT_type(*$C$DW$T$10)
	.dwattr $C$DW$88, DW_AT_location[DW_OP_breg13 1320]

$C$DW$89	.dwtag  DW_TAG_variable
	.dwattr $C$DW$89, DW_AT_name("n0060_")
	.dwattr $C$DW$89, DW_AT_TI_symbol_name("n0060_")
	.dwattr $C$DW$89, DW_AT_type(*$C$DW$T$10)
	.dwattr $C$DW$89, DW_AT_location[DW_OP_breg13 1324]

$C$DW$90	.dwtag  DW_TAG_variable
	.dwattr $C$DW$90, DW_AT_name("n0061_")
	.dwattr $C$DW$90, DW_AT_TI_symbol_name("n0061_")
	.dwattr $C$DW$90, DW_AT_type(*$C$DW$T$10)
	.dwattr $C$DW$90, DW_AT_location[DW_OP_breg13 1328]

$C$DW$91	.dwtag  DW_TAG_variable
	.dwattr $C$DW$91, DW_AT_name("n0062_")
	.dwattr $C$DW$91, DW_AT_TI_symbol_name("n0062_")
	.dwattr $C$DW$91, DW_AT_type(*$C$DW$T$10)
	.dwattr $C$DW$91, DW_AT_location[DW_OP_breg13 1332]

$C$DW$92	.dwtag  DW_TAG_variable
	.dwattr $C$DW$92, DW_AT_name("n0063_")
	.dwattr $C$DW$92, DW_AT_TI_symbol_name("n0063_")
	.dwattr $C$DW$92, DW_AT_type(*$C$DW$T$10)
	.dwattr $C$DW$92, DW_AT_location[DW_OP_breg13 1336]

$C$DW$93	.dwtag  DW_TAG_variable
	.dwattr $C$DW$93, DW_AT_name("n0064_")
	.dwattr $C$DW$93, DW_AT_TI_symbol_name("n0064_")
	.dwattr $C$DW$93, DW_AT_type(*$C$DW$T$10)
	.dwattr $C$DW$93, DW_AT_location[DW_OP_breg13 1340]

$C$DW$94	.dwtag  DW_TAG_variable
	.dwattr $C$DW$94, DW_AT_name("n0065_")
	.dwattr $C$DW$94, DW_AT_TI_symbol_name("n0065_")
	.dwattr $C$DW$94, DW_AT_type(*$C$DW$T$10)
	.dwattr $C$DW$94, DW_AT_location[DW_OP_breg13 1344]

$C$DW$95	.dwtag  DW_TAG_variable
	.dwattr $C$DW$95, DW_AT_name("n0066_")
	.dwattr $C$DW$95, DW_AT_TI_symbol_name("n0066_")
	.dwattr $C$DW$95, DW_AT_type(*$C$DW$T$10)
	.dwattr $C$DW$95, DW_AT_location[DW_OP_breg13 1348]

$C$DW$96	.dwtag  DW_TAG_variable
	.dwattr $C$DW$96, DW_AT_name("n0067_")
	.dwattr $C$DW$96, DW_AT_TI_symbol_name("n0067_")
	.dwattr $C$DW$96, DW_AT_type(*$C$DW$T$10)
	.dwattr $C$DW$96, DW_AT_location[DW_OP_breg13 1352]

$C$DW$97	.dwtag  DW_TAG_variable
	.dwattr $C$DW$97, DW_AT_name("n0068_")
	.dwattr $C$DW$97, DW_AT_TI_symbol_name("n0068_")
	.dwattr $C$DW$97, DW_AT_type(*$C$DW$T$10)
	.dwattr $C$DW$97, DW_AT_location[DW_OP_breg13 1356]

$C$DW$98	.dwtag  DW_TAG_variable
	.dwattr $C$DW$98, DW_AT_name("n0069_")
	.dwattr $C$DW$98, DW_AT_TI_symbol_name("n0069_")
	.dwattr $C$DW$98, DW_AT_type(*$C$DW$T$10)
	.dwattr $C$DW$98, DW_AT_location[DW_OP_breg13 1360]

$C$DW$99	.dwtag  DW_TAG_variable
	.dwattr $C$DW$99, DW_AT_name("n0070_")
	.dwattr $C$DW$99, DW_AT_TI_symbol_name("n0070_")
	.dwattr $C$DW$99, DW_AT_type(*$C$DW$T$10)
	.dwattr $C$DW$99, DW_AT_location[DW_OP_breg13 1364]

$C$DW$100	.dwtag  DW_TAG_variable
	.dwattr $C$DW$100, DW_AT_name("n0071_")
	.dwattr $C$DW$100, DW_AT_TI_symbol_name("n0071_")
	.dwattr $C$DW$100, DW_AT_type(*$C$DW$T$10)
	.dwattr $C$DW$100, DW_AT_location[DW_OP_breg13 1368]

$C$DW$101	.dwtag  DW_TAG_variable
	.dwattr $C$DW$101, DW_AT_name("n0072_")
	.dwattr $C$DW$101, DW_AT_TI_symbol_name("n0072_")
	.dwattr $C$DW$101, DW_AT_type(*$C$DW$T$10)
	.dwattr $C$DW$101, DW_AT_location[DW_OP_breg13 1372]

$C$DW$102	.dwtag  DW_TAG_variable
	.dwattr $C$DW$102, DW_AT_name("n0073_")
	.dwattr $C$DW$102, DW_AT_TI_symbol_name("n0073_")
	.dwattr $C$DW$102, DW_AT_type(*$C$DW$T$10)
	.dwattr $C$DW$102, DW_AT_location[DW_OP_breg13 1376]

$C$DW$103	.dwtag  DW_TAG_variable
	.dwattr $C$DW$103, DW_AT_name("n0074_")
	.dwattr $C$DW$103, DW_AT_TI_symbol_name("n0074_")
	.dwattr $C$DW$103, DW_AT_type(*$C$DW$T$10)
	.dwattr $C$DW$103, DW_AT_location[DW_OP_breg13 1380]

$C$DW$104	.dwtag  DW_TAG_variable
	.dwattr $C$DW$104, DW_AT_name("n0075_")
	.dwattr $C$DW$104, DW_AT_TI_symbol_name("n0075_")
	.dwattr $C$DW$104, DW_AT_type(*$C$DW$T$10)
	.dwattr $C$DW$104, DW_AT_location[DW_OP_breg13 1384]

$C$DW$105	.dwtag  DW_TAG_variable
	.dwattr $C$DW$105, DW_AT_name("n0076_")
	.dwattr $C$DW$105, DW_AT_TI_symbol_name("n0076_")
	.dwattr $C$DW$105, DW_AT_type(*$C$DW$T$10)
	.dwattr $C$DW$105, DW_AT_location[DW_OP_breg13 1388]

$C$DW$106	.dwtag  DW_TAG_variable
	.dwattr $C$DW$106, DW_AT_name("n0077_")
	.dwattr $C$DW$106, DW_AT_TI_symbol_name("n0077_")
	.dwattr $C$DW$106, DW_AT_type(*$C$DW$T$10)
	.dwattr $C$DW$106, DW_AT_location[DW_OP_breg13 1392]

$C$DW$107	.dwtag  DW_TAG_variable
	.dwattr $C$DW$107, DW_AT_name("n0078_")
	.dwattr $C$DW$107, DW_AT_TI_symbol_name("n0078_")
	.dwattr $C$DW$107, DW_AT_type(*$C$DW$T$10)
	.dwattr $C$DW$107, DW_AT_location[DW_OP_breg13 1396]

$C$DW$108	.dwtag  DW_TAG_variable
	.dwattr $C$DW$108, DW_AT_name("n0079_")
	.dwattr $C$DW$108, DW_AT_TI_symbol_name("n0079_")
	.dwattr $C$DW$108, DW_AT_type(*$C$DW$T$10)
	.dwattr $C$DW$108, DW_AT_location[DW_OP_breg13 1400]

$C$DW$109	.dwtag  DW_TAG_variable
	.dwattr $C$DW$109, DW_AT_name("n0080_")
	.dwattr $C$DW$109, DW_AT_TI_symbol_name("n0080_")
	.dwattr $C$DW$109, DW_AT_type(*$C$DW$T$10)
	.dwattr $C$DW$109, DW_AT_location[DW_OP_breg13 1404]

$C$DW$110	.dwtag  DW_TAG_variable
	.dwattr $C$DW$110, DW_AT_name("n0081_")
	.dwattr $C$DW$110, DW_AT_TI_symbol_name("n0081_")
	.dwattr $C$DW$110, DW_AT_type(*$C$DW$T$10)
	.dwattr $C$DW$110, DW_AT_location[DW_OP_breg13 1408]

$C$DW$111	.dwtag  DW_TAG_variable
	.dwattr $C$DW$111, DW_AT_name("n0082_")
	.dwattr $C$DW$111, DW_AT_TI_symbol_name("n0082_")
	.dwattr $C$DW$111, DW_AT_type(*$C$DW$T$10)
	.dwattr $C$DW$111, DW_AT_location[DW_OP_breg13 1412]

$C$DW$112	.dwtag  DW_TAG_variable
	.dwattr $C$DW$112, DW_AT_name("n0083_")
	.dwattr $C$DW$112, DW_AT_TI_symbol_name("n0083_")
	.dwattr $C$DW$112, DW_AT_type(*$C$DW$T$10)
	.dwattr $C$DW$112, DW_AT_location[DW_OP_breg13 1416]

$C$DW$113	.dwtag  DW_TAG_variable
	.dwattr $C$DW$113, DW_AT_name("n0084_")
	.dwattr $C$DW$113, DW_AT_TI_symbol_name("n0084_")
	.dwattr $C$DW$113, DW_AT_type(*$C$DW$T$10)
	.dwattr $C$DW$113, DW_AT_location[DW_OP_breg13 1420]

$C$DW$114	.dwtag  DW_TAG_variable
	.dwattr $C$DW$114, DW_AT_name("n0085_")
	.dwattr $C$DW$114, DW_AT_TI_symbol_name("n0085_")
	.dwattr $C$DW$114, DW_AT_type(*$C$DW$T$10)
	.dwattr $C$DW$114, DW_AT_location[DW_OP_breg13 1424]

$C$DW$115	.dwtag  DW_TAG_variable
	.dwattr $C$DW$115, DW_AT_name("n0086_")
	.dwattr $C$DW$115, DW_AT_TI_symbol_name("n0086_")
	.dwattr $C$DW$115, DW_AT_type(*$C$DW$T$10)
	.dwattr $C$DW$115, DW_AT_location[DW_OP_breg13 1428]

$C$DW$116	.dwtag  DW_TAG_variable
	.dwattr $C$DW$116, DW_AT_name("n0087_")
	.dwattr $C$DW$116, DW_AT_TI_symbol_name("n0087_")
	.dwattr $C$DW$116, DW_AT_type(*$C$DW$T$10)
	.dwattr $C$DW$116, DW_AT_location[DW_OP_breg13 1432]

$C$DW$117	.dwtag  DW_TAG_variable
	.dwattr $C$DW$117, DW_AT_name("n0088_")
	.dwattr $C$DW$117, DW_AT_TI_symbol_name("n0088_")
	.dwattr $C$DW$117, DW_AT_type(*$C$DW$T$10)
	.dwattr $C$DW$117, DW_AT_location[DW_OP_breg13 1436]

$C$DW$118	.dwtag  DW_TAG_variable
	.dwattr $C$DW$118, DW_AT_name("n0089_")
	.dwattr $C$DW$118, DW_AT_TI_symbol_name("n0089_")
	.dwattr $C$DW$118, DW_AT_type(*$C$DW$T$10)
	.dwattr $C$DW$118, DW_AT_location[DW_OP_breg13 1440]

$C$DW$119	.dwtag  DW_TAG_variable
	.dwattr $C$DW$119, DW_AT_name("n0090_")
	.dwattr $C$DW$119, DW_AT_TI_symbol_name("n0090_")
	.dwattr $C$DW$119, DW_AT_type(*$C$DW$T$10)
	.dwattr $C$DW$119, DW_AT_location[DW_OP_breg13 1444]

$C$DW$120	.dwtag  DW_TAG_variable
	.dwattr $C$DW$120, DW_AT_name("n0091_")
	.dwattr $C$DW$120, DW_AT_TI_symbol_name("n0091_")
	.dwattr $C$DW$120, DW_AT_type(*$C$DW$T$10)
	.dwattr $C$DW$120, DW_AT_location[DW_OP_breg13 1448]

$C$DW$121	.dwtag  DW_TAG_variable
	.dwattr $C$DW$121, DW_AT_name("n0092_")
	.dwattr $C$DW$121, DW_AT_TI_symbol_name("n0092_")
	.dwattr $C$DW$121, DW_AT_type(*$C$DW$T$10)
	.dwattr $C$DW$121, DW_AT_location[DW_OP_breg13 1452]

$C$DW$122	.dwtag  DW_TAG_variable
	.dwattr $C$DW$122, DW_AT_name("n0093_")
	.dwattr $C$DW$122, DW_AT_TI_symbol_name("n0093_")
	.dwattr $C$DW$122, DW_AT_type(*$C$DW$T$10)
	.dwattr $C$DW$122, DW_AT_location[DW_OP_breg13 1456]

$C$DW$123	.dwtag  DW_TAG_variable
	.dwattr $C$DW$123, DW_AT_name("n0094_")
	.dwattr $C$DW$123, DW_AT_TI_symbol_name("n0094_")
	.dwattr $C$DW$123, DW_AT_type(*$C$DW$T$10)
	.dwattr $C$DW$123, DW_AT_location[DW_OP_breg13 1460]

$C$DW$124	.dwtag  DW_TAG_variable
	.dwattr $C$DW$124, DW_AT_name("n0095_")
	.dwattr $C$DW$124, DW_AT_TI_symbol_name("n0095_")
	.dwattr $C$DW$124, DW_AT_type(*$C$DW$T$10)
	.dwattr $C$DW$124, DW_AT_location[DW_OP_breg13 1464]

$C$DW$125	.dwtag  DW_TAG_variable
	.dwattr $C$DW$125, DW_AT_name("n0096_")
	.dwattr $C$DW$125, DW_AT_TI_symbol_name("n0096_")
	.dwattr $C$DW$125, DW_AT_type(*$C$DW$T$10)
	.dwattr $C$DW$125, DW_AT_location[DW_OP_breg13 1468]

$C$DW$126	.dwtag  DW_TAG_variable
	.dwattr $C$DW$126, DW_AT_name("n0097_")
	.dwattr $C$DW$126, DW_AT_TI_symbol_name("n0097_")
	.dwattr $C$DW$126, DW_AT_type(*$C$DW$T$10)
	.dwattr $C$DW$126, DW_AT_location[DW_OP_breg13 1472]

$C$DW$127	.dwtag  DW_TAG_variable
	.dwattr $C$DW$127, DW_AT_name("n0098_")
	.dwattr $C$DW$127, DW_AT_TI_symbol_name("n0098_")
	.dwattr $C$DW$127, DW_AT_type(*$C$DW$T$10)
	.dwattr $C$DW$127, DW_AT_location[DW_OP_breg13 1476]

$C$DW$128	.dwtag  DW_TAG_variable
	.dwattr $C$DW$128, DW_AT_name("n0099_")
	.dwattr $C$DW$128, DW_AT_TI_symbol_name("n0099_")
	.dwattr $C$DW$128, DW_AT_type(*$C$DW$T$10)
	.dwattr $C$DW$128, DW_AT_location[DW_OP_breg13 1480]

$C$DW$129	.dwtag  DW_TAG_variable
	.dwattr $C$DW$129, DW_AT_name("n0100_")
	.dwattr $C$DW$129, DW_AT_TI_symbol_name("n0100_")
	.dwattr $C$DW$129, DW_AT_type(*$C$DW$T$10)
	.dwattr $C$DW$129, DW_AT_location[DW_OP_breg13 1484]

$C$DW$130	.dwtag  DW_TAG_variable
	.dwattr $C$DW$130, DW_AT_name("n0101_")
	.dwattr $C$DW$130, DW_AT_TI_symbol_name("n0101_")
	.dwattr $C$DW$130, DW_AT_type(*$C$DW$T$10)
	.dwattr $C$DW$130, DW_AT_location[DW_OP_breg13 1488]

$C$DW$131	.dwtag  DW_TAG_variable
	.dwattr $C$DW$131, DW_AT_name("n0102_")
	.dwattr $C$DW$131, DW_AT_TI_symbol_name("n0102_")
	.dwattr $C$DW$131, DW_AT_type(*$C$DW$T$10)
	.dwattr $C$DW$131, DW_AT_location[DW_OP_breg13 1492]

$C$DW$132	.dwtag  DW_TAG_variable
	.dwattr $C$DW$132, DW_AT_name("n0103_")
	.dwattr $C$DW$132, DW_AT_TI_symbol_name("n0103_")
	.dwattr $C$DW$132, DW_AT_type(*$C$DW$T$10)
	.dwattr $C$DW$132, DW_AT_location[DW_OP_breg13 1496]

$C$DW$133	.dwtag  DW_TAG_variable
	.dwattr $C$DW$133, DW_AT_name("n0104_")
	.dwattr $C$DW$133, DW_AT_TI_symbol_name("n0104_")
	.dwattr $C$DW$133, DW_AT_type(*$C$DW$T$10)
	.dwattr $C$DW$133, DW_AT_location[DW_OP_breg13 1500]

$C$DW$134	.dwtag  DW_TAG_variable
	.dwattr $C$DW$134, DW_AT_name("n0105_")
	.dwattr $C$DW$134, DW_AT_TI_symbol_name("n0105_")
	.dwattr $C$DW$134, DW_AT_type(*$C$DW$T$10)
	.dwattr $C$DW$134, DW_AT_location[DW_OP_breg13 1504]

$C$DW$135	.dwtag  DW_TAG_variable
	.dwattr $C$DW$135, DW_AT_name("n0106_")
	.dwattr $C$DW$135, DW_AT_TI_symbol_name("n0106_")
	.dwattr $C$DW$135, DW_AT_type(*$C$DW$T$10)
	.dwattr $C$DW$135, DW_AT_location[DW_OP_breg13 1508]

$C$DW$136	.dwtag  DW_TAG_variable
	.dwattr $C$DW$136, DW_AT_name("n0107_")
	.dwattr $C$DW$136, DW_AT_TI_symbol_name("n0107_")
	.dwattr $C$DW$136, DW_AT_type(*$C$DW$T$10)
	.dwattr $C$DW$136, DW_AT_location[DW_OP_breg13 1512]

$C$DW$137	.dwtag  DW_TAG_variable
	.dwattr $C$DW$137, DW_AT_name("n0108_")
	.dwattr $C$DW$137, DW_AT_TI_symbol_name("n0108_")
	.dwattr $C$DW$137, DW_AT_type(*$C$DW$T$10)
	.dwattr $C$DW$137, DW_AT_location[DW_OP_breg13 1516]

$C$DW$138	.dwtag  DW_TAG_variable
	.dwattr $C$DW$138, DW_AT_name("n0109_")
	.dwattr $C$DW$138, DW_AT_TI_symbol_name("n0109_")
	.dwattr $C$DW$138, DW_AT_type(*$C$DW$T$10)
	.dwattr $C$DW$138, DW_AT_location[DW_OP_breg13 1520]

$C$DW$139	.dwtag  DW_TAG_variable
	.dwattr $C$DW$139, DW_AT_name("n0110_")
	.dwattr $C$DW$139, DW_AT_TI_symbol_name("n0110_")
	.dwattr $C$DW$139, DW_AT_type(*$C$DW$T$10)
	.dwattr $C$DW$139, DW_AT_location[DW_OP_breg13 1524]

$C$DW$140	.dwtag  DW_TAG_variable
	.dwattr $C$DW$140, DW_AT_name("n0111_")
	.dwattr $C$DW$140, DW_AT_TI_symbol_name("n0111_")
	.dwattr $C$DW$140, DW_AT_type(*$C$DW$T$10)
	.dwattr $C$DW$140, DW_AT_location[DW_OP_breg13 1528]

$C$DW$141	.dwtag  DW_TAG_variable
	.dwattr $C$DW$141, DW_AT_name("n0112_")
	.dwattr $C$DW$141, DW_AT_TI_symbol_name("n0112_")
	.dwattr $C$DW$141, DW_AT_type(*$C$DW$T$10)
	.dwattr $C$DW$141, DW_AT_location[DW_OP_breg13 1532]

$C$DW$142	.dwtag  DW_TAG_variable
	.dwattr $C$DW$142, DW_AT_name("n0113_")
	.dwattr $C$DW$142, DW_AT_TI_symbol_name("n0113_")
	.dwattr $C$DW$142, DW_AT_type(*$C$DW$T$10)
	.dwattr $C$DW$142, DW_AT_location[DW_OP_breg13 1536]

$C$DW$143	.dwtag  DW_TAG_variable
	.dwattr $C$DW$143, DW_AT_name("n0114_")
	.dwattr $C$DW$143, DW_AT_TI_symbol_name("n0114_")
	.dwattr $C$DW$143, DW_AT_type(*$C$DW$T$10)
	.dwattr $C$DW$143, DW_AT_location[DW_OP_breg13 1540]

$C$DW$144	.dwtag  DW_TAG_variable
	.dwattr $C$DW$144, DW_AT_name("n0115_")
	.dwattr $C$DW$144, DW_AT_TI_symbol_name("n0115_")
	.dwattr $C$DW$144, DW_AT_type(*$C$DW$T$10)
	.dwattr $C$DW$144, DW_AT_location[DW_OP_breg13 1544]

$C$DW$145	.dwtag  DW_TAG_variable
	.dwattr $C$DW$145, DW_AT_name("n0116_")
	.dwattr $C$DW$145, DW_AT_TI_symbol_name("n0116_")
	.dwattr $C$DW$145, DW_AT_type(*$C$DW$T$10)
	.dwattr $C$DW$145, DW_AT_location[DW_OP_breg13 1548]

$C$DW$146	.dwtag  DW_TAG_variable
	.dwattr $C$DW$146, DW_AT_name("n0117_")
	.dwattr $C$DW$146, DW_AT_TI_symbol_name("n0117_")
	.dwattr $C$DW$146, DW_AT_type(*$C$DW$T$10)
	.dwattr $C$DW$146, DW_AT_location[DW_OP_breg13 1552]

$C$DW$147	.dwtag  DW_TAG_variable
	.dwattr $C$DW$147, DW_AT_name("n0118_")
	.dwattr $C$DW$147, DW_AT_TI_symbol_name("n0118_")
	.dwattr $C$DW$147, DW_AT_type(*$C$DW$T$10)
	.dwattr $C$DW$147, DW_AT_location[DW_OP_breg13 1556]

$C$DW$148	.dwtag  DW_TAG_variable
	.dwattr $C$DW$148, DW_AT_name("n0119_")
	.dwattr $C$DW$148, DW_AT_TI_symbol_name("n0119_")
	.dwattr $C$DW$148, DW_AT_type(*$C$DW$T$10)
	.dwattr $C$DW$148, DW_AT_location[DW_OP_breg13 1560]

$C$DW$149	.dwtag  DW_TAG_variable
	.dwattr $C$DW$149, DW_AT_name("n0120_")
	.dwattr $C$DW$149, DW_AT_TI_symbol_name("n0120_")
	.dwattr $C$DW$149, DW_AT_type(*$C$DW$T$10)
	.dwattr $C$DW$149, DW_AT_location[DW_OP_breg13 1564]

$C$DW$150	.dwtag  DW_TAG_variable
	.dwattr $C$DW$150, DW_AT_name("n0121_")
	.dwattr $C$DW$150, DW_AT_TI_symbol_name("n0121_")
	.dwattr $C$DW$150, DW_AT_type(*$C$DW$T$10)
	.dwattr $C$DW$150, DW_AT_location[DW_OP_breg13 1568]

$C$DW$151	.dwtag  DW_TAG_variable
	.dwattr $C$DW$151, DW_AT_name("n0122_")
	.dwattr $C$DW$151, DW_AT_TI_symbol_name("n0122_")
	.dwattr $C$DW$151, DW_AT_type(*$C$DW$T$10)
	.dwattr $C$DW$151, DW_AT_location[DW_OP_breg13 1572]

$C$DW$152	.dwtag  DW_TAG_variable
	.dwattr $C$DW$152, DW_AT_name("n0123_")
	.dwattr $C$DW$152, DW_AT_TI_symbol_name("n0123_")
	.dwattr $C$DW$152, DW_AT_type(*$C$DW$T$10)
	.dwattr $C$DW$152, DW_AT_location[DW_OP_breg13 1576]

$C$DW$153	.dwtag  DW_TAG_variable
	.dwattr $C$DW$153, DW_AT_name("n0124_")
	.dwattr $C$DW$153, DW_AT_TI_symbol_name("n0124_")
	.dwattr $C$DW$153, DW_AT_type(*$C$DW$T$10)
	.dwattr $C$DW$153, DW_AT_location[DW_OP_breg13 1580]

$C$DW$154	.dwtag  DW_TAG_variable
	.dwattr $C$DW$154, DW_AT_name("n0125_")
	.dwattr $C$DW$154, DW_AT_TI_symbol_name("n0125_")
	.dwattr $C$DW$154, DW_AT_type(*$C$DW$T$10)
	.dwattr $C$DW$154, DW_AT_location[DW_OP_breg13 1584]

$C$DW$155	.dwtag  DW_TAG_variable
	.dwattr $C$DW$155, DW_AT_name("n0126_")
	.dwattr $C$DW$155, DW_AT_TI_symbol_name("n0126_")
	.dwattr $C$DW$155, DW_AT_type(*$C$DW$T$10)
	.dwattr $C$DW$155, DW_AT_location[DW_OP_breg13 1588]

$C$DW$156	.dwtag  DW_TAG_variable
	.dwattr $C$DW$156, DW_AT_name("n0127_")
	.dwattr $C$DW$156, DW_AT_TI_symbol_name("n0127_")
	.dwattr $C$DW$156, DW_AT_type(*$C$DW$T$10)
	.dwattr $C$DW$156, DW_AT_location[DW_OP_breg13 1592]

$C$DW$157	.dwtag  DW_TAG_variable
	.dwattr $C$DW$157, DW_AT_name("n0128_")
	.dwattr $C$DW$157, DW_AT_TI_symbol_name("n0128_")
	.dwattr $C$DW$157, DW_AT_type(*$C$DW$T$10)
	.dwattr $C$DW$157, DW_AT_location[DW_OP_breg13 1596]

$C$DW$158	.dwtag  DW_TAG_variable
	.dwattr $C$DW$158, DW_AT_name("n0129_")
	.dwattr $C$DW$158, DW_AT_TI_symbol_name("n0129_")
	.dwattr $C$DW$158, DW_AT_type(*$C$DW$T$10)
	.dwattr $C$DW$158, DW_AT_location[DW_OP_breg13 1600]

$C$DW$159	.dwtag  DW_TAG_variable
	.dwattr $C$DW$159, DW_AT_name("n0130_")
	.dwattr $C$DW$159, DW_AT_TI_symbol_name("n0130_")
	.dwattr $C$DW$159, DW_AT_type(*$C$DW$T$10)
	.dwattr $C$DW$159, DW_AT_location[DW_OP_breg13 1604]

$C$DW$160	.dwtag  DW_TAG_variable
	.dwattr $C$DW$160, DW_AT_name("n0131_")
	.dwattr $C$DW$160, DW_AT_TI_symbol_name("n0131_")
	.dwattr $C$DW$160, DW_AT_type(*$C$DW$T$10)
	.dwattr $C$DW$160, DW_AT_location[DW_OP_breg13 1608]

$C$DW$161	.dwtag  DW_TAG_variable
	.dwattr $C$DW$161, DW_AT_name("n0132_")
	.dwattr $C$DW$161, DW_AT_TI_symbol_name("n0132_")
	.dwattr $C$DW$161, DW_AT_type(*$C$DW$T$10)
	.dwattr $C$DW$161, DW_AT_location[DW_OP_breg13 1612]

$C$DW$162	.dwtag  DW_TAG_variable
	.dwattr $C$DW$162, DW_AT_name("n0133_")
	.dwattr $C$DW$162, DW_AT_TI_symbol_name("n0133_")
	.dwattr $C$DW$162, DW_AT_type(*$C$DW$T$10)
	.dwattr $C$DW$162, DW_AT_location[DW_OP_breg13 1616]

$C$DW$163	.dwtag  DW_TAG_variable
	.dwattr $C$DW$163, DW_AT_name("n0134_")
	.dwattr $C$DW$163, DW_AT_TI_symbol_name("n0134_")
	.dwattr $C$DW$163, DW_AT_type(*$C$DW$T$10)
	.dwattr $C$DW$163, DW_AT_location[DW_OP_breg13 1620]

$C$DW$164	.dwtag  DW_TAG_variable
	.dwattr $C$DW$164, DW_AT_name("n0135_")
	.dwattr $C$DW$164, DW_AT_TI_symbol_name("n0135_")
	.dwattr $C$DW$164, DW_AT_type(*$C$DW$T$10)
	.dwattr $C$DW$164, DW_AT_location[DW_OP_breg13 1624]

$C$DW$165	.dwtag  DW_TAG_variable
	.dwattr $C$DW$165, DW_AT_name("n0136_")
	.dwattr $C$DW$165, DW_AT_TI_symbol_name("n0136_")
	.dwattr $C$DW$165, DW_AT_type(*$C$DW$T$10)
	.dwattr $C$DW$165, DW_AT_location[DW_OP_breg13 1628]

$C$DW$166	.dwtag  DW_TAG_variable
	.dwattr $C$DW$166, DW_AT_name("n0137_")
	.dwattr $C$DW$166, DW_AT_TI_symbol_name("n0137_")
	.dwattr $C$DW$166, DW_AT_type(*$C$DW$T$10)
	.dwattr $C$DW$166, DW_AT_location[DW_OP_breg13 1632]

$C$DW$167	.dwtag  DW_TAG_variable
	.dwattr $C$DW$167, DW_AT_name("n0138_")
	.dwattr $C$DW$167, DW_AT_TI_symbol_name("n0138_")
	.dwattr $C$DW$167, DW_AT_type(*$C$DW$T$10)
	.dwattr $C$DW$167, DW_AT_location[DW_OP_breg13 1636]

$C$DW$168	.dwtag  DW_TAG_variable
	.dwattr $C$DW$168, DW_AT_name("n0139_")
	.dwattr $C$DW$168, DW_AT_TI_symbol_name("n0139_")
	.dwattr $C$DW$168, DW_AT_type(*$C$DW$T$10)
	.dwattr $C$DW$168, DW_AT_location[DW_OP_breg13 1640]

$C$DW$169	.dwtag  DW_TAG_variable
	.dwattr $C$DW$169, DW_AT_name("n0140_")
	.dwattr $C$DW$169, DW_AT_TI_symbol_name("n0140_")
	.dwattr $C$DW$169, DW_AT_type(*$C$DW$T$10)
	.dwattr $C$DW$169, DW_AT_location[DW_OP_breg13 1644]

$C$DW$170	.dwtag  DW_TAG_variable
	.dwattr $C$DW$170, DW_AT_name("n0141_")
	.dwattr $C$DW$170, DW_AT_TI_symbol_name("n0141_")
	.dwattr $C$DW$170, DW_AT_type(*$C$DW$T$10)
	.dwattr $C$DW$170, DW_AT_location[DW_OP_breg13 1648]

$C$DW$171	.dwtag  DW_TAG_variable
	.dwattr $C$DW$171, DW_AT_name("n0142_")
	.dwattr $C$DW$171, DW_AT_TI_symbol_name("n0142_")
	.dwattr $C$DW$171, DW_AT_type(*$C$DW$T$10)
	.dwattr $C$DW$171, DW_AT_location[DW_OP_breg13 1652]

$C$DW$172	.dwtag  DW_TAG_variable
	.dwattr $C$DW$172, DW_AT_name("n0143_")
	.dwattr $C$DW$172, DW_AT_TI_symbol_name("n0143_")
	.dwattr $C$DW$172, DW_AT_type(*$C$DW$T$10)
	.dwattr $C$DW$172, DW_AT_location[DW_OP_breg13 1656]

$C$DW$173	.dwtag  DW_TAG_variable
	.dwattr $C$DW$173, DW_AT_name("n0144_")
	.dwattr $C$DW$173, DW_AT_TI_symbol_name("n0144_")
	.dwattr $C$DW$173, DW_AT_type(*$C$DW$T$10)
	.dwattr $C$DW$173, DW_AT_location[DW_OP_breg13 1660]

$C$DW$174	.dwtag  DW_TAG_variable
	.dwattr $C$DW$174, DW_AT_name("n0145_")
	.dwattr $C$DW$174, DW_AT_TI_symbol_name("n0145_")
	.dwattr $C$DW$174, DW_AT_type(*$C$DW$T$10)
	.dwattr $C$DW$174, DW_AT_location[DW_OP_breg13 1664]

$C$DW$175	.dwtag  DW_TAG_variable
	.dwattr $C$DW$175, DW_AT_name("n0146_")
	.dwattr $C$DW$175, DW_AT_TI_symbol_name("n0146_")
	.dwattr $C$DW$175, DW_AT_type(*$C$DW$T$10)
	.dwattr $C$DW$175, DW_AT_location[DW_OP_breg13 1668]

$C$DW$176	.dwtag  DW_TAG_variable
	.dwattr $C$DW$176, DW_AT_name("n0147_")
	.dwattr $C$DW$176, DW_AT_TI_symbol_name("n0147_")
	.dwattr $C$DW$176, DW_AT_type(*$C$DW$T$10)
	.dwattr $C$DW$176, DW_AT_location[DW_OP_breg13 1672]

$C$DW$177	.dwtag  DW_TAG_variable
	.dwattr $C$DW$177, DW_AT_name("n0148_")
	.dwattr $C$DW$177, DW_AT_TI_symbol_name("n0148_")
	.dwattr $C$DW$177, DW_AT_type(*$C$DW$T$10)
	.dwattr $C$DW$177, DW_AT_location[DW_OP_breg13 1676]

$C$DW$178	.dwtag  DW_TAG_variable
	.dwattr $C$DW$178, DW_AT_name("n0149_")
	.dwattr $C$DW$178, DW_AT_TI_symbol_name("n0149_")
	.dwattr $C$DW$178, DW_AT_type(*$C$DW$T$10)
	.dwattr $C$DW$178, DW_AT_location[DW_OP_breg13 1680]

$C$DW$179	.dwtag  DW_TAG_variable
	.dwattr $C$DW$179, DW_AT_name("n0150_")
	.dwattr $C$DW$179, DW_AT_TI_symbol_name("n0150_")
	.dwattr $C$DW$179, DW_AT_type(*$C$DW$T$10)
	.dwattr $C$DW$179, DW_AT_location[DW_OP_breg13 1684]

$C$DW$180	.dwtag  DW_TAG_variable
	.dwattr $C$DW$180, DW_AT_name("n0151_")
	.dwattr $C$DW$180, DW_AT_TI_symbol_name("n0151_")
	.dwattr $C$DW$180, DW_AT_type(*$C$DW$T$10)
	.dwattr $C$DW$180, DW_AT_location[DW_OP_breg13 1688]

$C$DW$181	.dwtag  DW_TAG_variable
	.dwattr $C$DW$181, DW_AT_name("n0152_")
	.dwattr $C$DW$181, DW_AT_TI_symbol_name("n0152_")
	.dwattr $C$DW$181, DW_AT_type(*$C$DW$T$10)
	.dwattr $C$DW$181, DW_AT_location[DW_OP_breg13 1692]

$C$DW$182	.dwtag  DW_TAG_variable
	.dwattr $C$DW$182, DW_AT_name("n0153_")
	.dwattr $C$DW$182, DW_AT_TI_symbol_name("n0153_")
	.dwattr $C$DW$182, DW_AT_type(*$C$DW$T$10)
	.dwattr $C$DW$182, DW_AT_location[DW_OP_breg13 1696]

$C$DW$183	.dwtag  DW_TAG_variable
	.dwattr $C$DW$183, DW_AT_name("n0154_")
	.dwattr $C$DW$183, DW_AT_TI_symbol_name("n0154_")
	.dwattr $C$DW$183, DW_AT_type(*$C$DW$T$10)
	.dwattr $C$DW$183, DW_AT_location[DW_OP_breg13 1700]

$C$DW$184	.dwtag  DW_TAG_variable
	.dwattr $C$DW$184, DW_AT_name("n0155_")
	.dwattr $C$DW$184, DW_AT_TI_symbol_name("n0155_")
	.dwattr $C$DW$184, DW_AT_type(*$C$DW$T$10)
	.dwattr $C$DW$184, DW_AT_location[DW_OP_breg13 1704]

$C$DW$185	.dwtag  DW_TAG_variable
	.dwattr $C$DW$185, DW_AT_name("n0156_")
	.dwattr $C$DW$185, DW_AT_TI_symbol_name("n0156_")
	.dwattr $C$DW$185, DW_AT_type(*$C$DW$T$10)
	.dwattr $C$DW$185, DW_AT_location[DW_OP_breg13 1708]

$C$DW$186	.dwtag  DW_TAG_variable
	.dwattr $C$DW$186, DW_AT_name("n0157_")
	.dwattr $C$DW$186, DW_AT_TI_symbol_name("n0157_")
	.dwattr $C$DW$186, DW_AT_type(*$C$DW$T$10)
	.dwattr $C$DW$186, DW_AT_location[DW_OP_breg13 1712]

$C$DW$187	.dwtag  DW_TAG_variable
	.dwattr $C$DW$187, DW_AT_name("n0158_")
	.dwattr $C$DW$187, DW_AT_TI_symbol_name("n0158_")
	.dwattr $C$DW$187, DW_AT_type(*$C$DW$T$10)
	.dwattr $C$DW$187, DW_AT_location[DW_OP_breg13 1716]

$C$DW$188	.dwtag  DW_TAG_variable
	.dwattr $C$DW$188, DW_AT_name("n0159_")
	.dwattr $C$DW$188, DW_AT_TI_symbol_name("n0159_")
	.dwattr $C$DW$188, DW_AT_type(*$C$DW$T$10)
	.dwattr $C$DW$188, DW_AT_location[DW_OP_breg13 1720]

$C$DW$189	.dwtag  DW_TAG_variable
	.dwattr $C$DW$189, DW_AT_name("n0160_")
	.dwattr $C$DW$189, DW_AT_TI_symbol_name("n0160_")
	.dwattr $C$DW$189, DW_AT_type(*$C$DW$T$10)
	.dwattr $C$DW$189, DW_AT_location[DW_OP_breg13 1724]

$C$DW$190	.dwtag  DW_TAG_variable
	.dwattr $C$DW$190, DW_AT_name("n0161_")
	.dwattr $C$DW$190, DW_AT_TI_symbol_name("n0161_")
	.dwattr $C$DW$190, DW_AT_type(*$C$DW$T$10)
	.dwattr $C$DW$190, DW_AT_location[DW_OP_breg13 1728]

$C$DW$191	.dwtag  DW_TAG_variable
	.dwattr $C$DW$191, DW_AT_name("n0162_")
	.dwattr $C$DW$191, DW_AT_TI_symbol_name("n0162_")
	.dwattr $C$DW$191, DW_AT_type(*$C$DW$T$10)
	.dwattr $C$DW$191, DW_AT_location[DW_OP_breg13 1732]

$C$DW$192	.dwtag  DW_TAG_variable
	.dwattr $C$DW$192, DW_AT_name("n0163_")
	.dwattr $C$DW$192, DW_AT_TI_symbol_name("n0163_")
	.dwattr $C$DW$192, DW_AT_type(*$C$DW$T$10)
	.dwattr $C$DW$192, DW_AT_location[DW_OP_breg13 1736]

$C$DW$193	.dwtag  DW_TAG_variable
	.dwattr $C$DW$193, DW_AT_name("n0164_")
	.dwattr $C$DW$193, DW_AT_TI_symbol_name("n0164_")
	.dwattr $C$DW$193, DW_AT_type(*$C$DW$T$10)
	.dwattr $C$DW$193, DW_AT_location[DW_OP_breg13 1740]

$C$DW$194	.dwtag  DW_TAG_variable
	.dwattr $C$DW$194, DW_AT_name("n0165_")
	.dwattr $C$DW$194, DW_AT_TI_symbol_name("n0165_")
	.dwattr $C$DW$194, DW_AT_type(*$C$DW$T$10)
	.dwattr $C$DW$194, DW_AT_location[DW_OP_breg13 1744]

$C$DW$195	.dwtag  DW_TAG_variable
	.dwattr $C$DW$195, DW_AT_name("n0166_")
	.dwattr $C$DW$195, DW_AT_TI_symbol_name("n0166_")
	.dwattr $C$DW$195, DW_AT_type(*$C$DW$T$10)
	.dwattr $C$DW$195, DW_AT_location[DW_OP_breg13 1748]

$C$DW$196	.dwtag  DW_TAG_variable
	.dwattr $C$DW$196, DW_AT_name("n0167_")
	.dwattr $C$DW$196, DW_AT_TI_symbol_name("n0167_")
	.dwattr $C$DW$196, DW_AT_type(*$C$DW$T$10)
	.dwattr $C$DW$196, DW_AT_location[DW_OP_breg13 1752]

$C$DW$197	.dwtag  DW_TAG_variable
	.dwattr $C$DW$197, DW_AT_name("n0168_")
	.dwattr $C$DW$197, DW_AT_TI_symbol_name("n0168_")
	.dwattr $C$DW$197, DW_AT_type(*$C$DW$T$10)
	.dwattr $C$DW$197, DW_AT_location[DW_OP_breg13 1756]

$C$DW$198	.dwtag  DW_TAG_variable
	.dwattr $C$DW$198, DW_AT_name("n0169_")
	.dwattr $C$DW$198, DW_AT_TI_symbol_name("n0169_")
	.dwattr $C$DW$198, DW_AT_type(*$C$DW$T$10)
	.dwattr $C$DW$198, DW_AT_location[DW_OP_breg13 1760]

$C$DW$199	.dwtag  DW_TAG_variable
	.dwattr $C$DW$199, DW_AT_name("n0170_")
	.dwattr $C$DW$199, DW_AT_TI_symbol_name("n0170_")
	.dwattr $C$DW$199, DW_AT_type(*$C$DW$T$10)
	.dwattr $C$DW$199, DW_AT_location[DW_OP_breg13 1764]

$C$DW$200	.dwtag  DW_TAG_variable
	.dwattr $C$DW$200, DW_AT_name("n0171_")
	.dwattr $C$DW$200, DW_AT_TI_symbol_name("n0171_")
	.dwattr $C$DW$200, DW_AT_type(*$C$DW$T$10)
	.dwattr $C$DW$200, DW_AT_location[DW_OP_breg13 1768]

$C$DW$201	.dwtag  DW_TAG_variable
	.dwattr $C$DW$201, DW_AT_name("n0172_")
	.dwattr $C$DW$201, DW_AT_TI_symbol_name("n0172_")
	.dwattr $C$DW$201, DW_AT_type(*$C$DW$T$10)
	.dwattr $C$DW$201, DW_AT_location[DW_OP_breg13 1772]

$C$DW$202	.dwtag  DW_TAG_variable
	.dwattr $C$DW$202, DW_AT_name("n0173_")
	.dwattr $C$DW$202, DW_AT_TI_symbol_name("n0173_")
	.dwattr $C$DW$202, DW_AT_type(*$C$DW$T$10)
	.dwattr $C$DW$202, DW_AT_location[DW_OP_breg13 1776]

$C$DW$203	.dwtag  DW_TAG_variable
	.dwattr $C$DW$203, DW_AT_name("n0174_")
	.dwattr $C$DW$203, DW_AT_TI_symbol_name("n0174_")
	.dwattr $C$DW$203, DW_AT_type(*$C$DW$T$10)
	.dwattr $C$DW$203, DW_AT_location[DW_OP_breg13 1780]

$C$DW$204	.dwtag  DW_TAG_variable
	.dwattr $C$DW$204, DW_AT_name("n0175_")
	.dwattr $C$DW$204, DW_AT_TI_symbol_name("n0175_")
	.dwattr $C$DW$204, DW_AT_type(*$C$DW$T$10)
	.dwattr $C$DW$204, DW_AT_location[DW_OP_breg13 1784]

$C$DW$205	.dwtag  DW_TAG_variable
	.dwattr $C$DW$205, DW_AT_name("n0176_")
	.dwattr $C$DW$205, DW_AT_TI_symbol_name("n0176_")
	.dwattr $C$DW$205, DW_AT_type(*$C$DW$T$10)
	.dwattr $C$DW$205, DW_AT_location[DW_OP_breg13 1788]

$C$DW$206	.dwtag  DW_TAG_variable
	.dwattr $C$DW$206, DW_AT_name("n0177_")
	.dwattr $C$DW$206, DW_AT_TI_symbol_name("n0177_")
	.dwattr $C$DW$206, DW_AT_type(*$C$DW$T$10)
	.dwattr $C$DW$206, DW_AT_location[DW_OP_breg13 1792]

$C$DW$207	.dwtag  DW_TAG_variable
	.dwattr $C$DW$207, DW_AT_name("n0178_")
	.dwattr $C$DW$207, DW_AT_TI_symbol_name("n0178_")
	.dwattr $C$DW$207, DW_AT_type(*$C$DW$T$10)
	.dwattr $C$DW$207, DW_AT_location[DW_OP_breg13 1796]

$C$DW$208	.dwtag  DW_TAG_variable
	.dwattr $C$DW$208, DW_AT_name("n0179_")
	.dwattr $C$DW$208, DW_AT_TI_symbol_name("n0179_")
	.dwattr $C$DW$208, DW_AT_type(*$C$DW$T$10)
	.dwattr $C$DW$208, DW_AT_location[DW_OP_breg13 1800]

$C$DW$209	.dwtag  DW_TAG_variable
	.dwattr $C$DW$209, DW_AT_name("n0180_")
	.dwattr $C$DW$209, DW_AT_TI_symbol_name("n0180_")
	.dwattr $C$DW$209, DW_AT_type(*$C$DW$T$10)
	.dwattr $C$DW$209, DW_AT_location[DW_OP_breg13 1804]

$C$DW$210	.dwtag  DW_TAG_variable
	.dwattr $C$DW$210, DW_AT_name("n0181_")
	.dwattr $C$DW$210, DW_AT_TI_symbol_name("n0181_")
	.dwattr $C$DW$210, DW_AT_type(*$C$DW$T$10)
	.dwattr $C$DW$210, DW_AT_location[DW_OP_breg13 1808]

$C$DW$211	.dwtag  DW_TAG_variable
	.dwattr $C$DW$211, DW_AT_name("n0182_")
	.dwattr $C$DW$211, DW_AT_TI_symbol_name("n0182_")
	.dwattr $C$DW$211, DW_AT_type(*$C$DW$T$10)
	.dwattr $C$DW$211, DW_AT_location[DW_OP_breg13 1812]

$C$DW$212	.dwtag  DW_TAG_variable
	.dwattr $C$DW$212, DW_AT_name("n0183_")
	.dwattr $C$DW$212, DW_AT_TI_symbol_name("n0183_")
	.dwattr $C$DW$212, DW_AT_type(*$C$DW$T$10)
	.dwattr $C$DW$212, DW_AT_location[DW_OP_breg13 1816]

$C$DW$213	.dwtag  DW_TAG_variable
	.dwattr $C$DW$213, DW_AT_name("n0184_")
	.dwattr $C$DW$213, DW_AT_TI_symbol_name("n0184_")
	.dwattr $C$DW$213, DW_AT_type(*$C$DW$T$10)
	.dwattr $C$DW$213, DW_AT_location[DW_OP_breg13 1820]

$C$DW$214	.dwtag  DW_TAG_variable
	.dwattr $C$DW$214, DW_AT_name("n0185_")
	.dwattr $C$DW$214, DW_AT_TI_symbol_name("n0185_")
	.dwattr $C$DW$214, DW_AT_type(*$C$DW$T$10)
	.dwattr $C$DW$214, DW_AT_location[DW_OP_breg13 1824]

$C$DW$215	.dwtag  DW_TAG_variable
	.dwattr $C$DW$215, DW_AT_name("n0186_")
	.dwattr $C$DW$215, DW_AT_TI_symbol_name("n0186_")
	.dwattr $C$DW$215, DW_AT_type(*$C$DW$T$10)
	.dwattr $C$DW$215, DW_AT_location[DW_OP_breg13 1828]

$C$DW$216	.dwtag  DW_TAG_variable
	.dwattr $C$DW$216, DW_AT_name("n0187_")
	.dwattr $C$DW$216, DW_AT_TI_symbol_name("n0187_")
	.dwattr $C$DW$216, DW_AT_type(*$C$DW$T$10)
	.dwattr $C$DW$216, DW_AT_location[DW_OP_breg13 1832]

$C$DW$217	.dwtag  DW_TAG_variable
	.dwattr $C$DW$217, DW_AT_name("n0188_")
	.dwattr $C$DW$217, DW_AT_TI_symbol_name("n0188_")
	.dwattr $C$DW$217, DW_AT_type(*$C$DW$T$10)
	.dwattr $C$DW$217, DW_AT_location[DW_OP_breg13 1836]

$C$DW$218	.dwtag  DW_TAG_variable
	.dwattr $C$DW$218, DW_AT_name("n0189_")
	.dwattr $C$DW$218, DW_AT_TI_symbol_name("n0189_")
	.dwattr $C$DW$218, DW_AT_type(*$C$DW$T$10)
	.dwattr $C$DW$218, DW_AT_location[DW_OP_breg13 1840]

$C$DW$219	.dwtag  DW_TAG_variable
	.dwattr $C$DW$219, DW_AT_name("n0190_")
	.dwattr $C$DW$219, DW_AT_TI_symbol_name("n0190_")
	.dwattr $C$DW$219, DW_AT_type(*$C$DW$T$10)
	.dwattr $C$DW$219, DW_AT_location[DW_OP_breg13 1844]

$C$DW$220	.dwtag  DW_TAG_variable
	.dwattr $C$DW$220, DW_AT_name("n0191_")
	.dwattr $C$DW$220, DW_AT_TI_symbol_name("n0191_")
	.dwattr $C$DW$220, DW_AT_type(*$C$DW$T$10)
	.dwattr $C$DW$220, DW_AT_location[DW_OP_breg13 1848]

$C$DW$221	.dwtag  DW_TAG_variable
	.dwattr $C$DW$221, DW_AT_name("n0192_")
	.dwattr $C$DW$221, DW_AT_TI_symbol_name("n0192_")
	.dwattr $C$DW$221, DW_AT_type(*$C$DW$T$10)
	.dwattr $C$DW$221, DW_AT_location[DW_OP_breg13 1852]

$C$DW$222	.dwtag  DW_TAG_variable
	.dwattr $C$DW$222, DW_AT_name("n0193_")
	.dwattr $C$DW$222, DW_AT_TI_symbol_name("n0193_")
	.dwattr $C$DW$222, DW_AT_type(*$C$DW$T$10)
	.dwattr $C$DW$222, DW_AT_location[DW_OP_breg13 1856]

$C$DW$223	.dwtag  DW_TAG_variable
	.dwattr $C$DW$223, DW_AT_name("n0194_")
	.dwattr $C$DW$223, DW_AT_TI_symbol_name("n0194_")
	.dwattr $C$DW$223, DW_AT_type(*$C$DW$T$10)
	.dwattr $C$DW$223, DW_AT_location[DW_OP_breg13 1860]

$C$DW$224	.dwtag  DW_TAG_variable
	.dwattr $C$DW$224, DW_AT_name("n0195_")
	.dwattr $C$DW$224, DW_AT_TI_symbol_name("n0195_")
	.dwattr $C$DW$224, DW_AT_type(*$C$DW$T$10)
	.dwattr $C$DW$224, DW_AT_location[DW_OP_breg13 1864]

$C$DW$225	.dwtag  DW_TAG_variable
	.dwattr $C$DW$225, DW_AT_name("n0196_")
	.dwattr $C$DW$225, DW_AT_TI_symbol_name("n0196_")
	.dwattr $C$DW$225, DW_AT_type(*$C$DW$T$10)
	.dwattr $C$DW$225, DW_AT_location[DW_OP_breg13 1868]

$C$DW$226	.dwtag  DW_TAG_variable
	.dwattr $C$DW$226, DW_AT_name("n0197_")
	.dwattr $C$DW$226, DW_AT_TI_symbol_name("n0197_")
	.dwattr $C$DW$226, DW_AT_type(*$C$DW$T$10)
	.dwattr $C$DW$226, DW_AT_location[DW_OP_breg13 1872]

$C$DW$227	.dwtag  DW_TAG_variable
	.dwattr $C$DW$227, DW_AT_name("n0198_")
	.dwattr $C$DW$227, DW_AT_TI_symbol_name("n0198_")
	.dwattr $C$DW$227, DW_AT_type(*$C$DW$T$10)
	.dwattr $C$DW$227, DW_AT_location[DW_OP_breg13 1876]

$C$DW$228	.dwtag  DW_TAG_variable
	.dwattr $C$DW$228, DW_AT_name("n0199_")
	.dwattr $C$DW$228, DW_AT_TI_symbol_name("n0199_")
	.dwattr $C$DW$228, DW_AT_type(*$C$DW$T$10)
	.dwattr $C$DW$228, DW_AT_location[DW_OP_breg13 1880]

$C$DW$229	.dwtag  DW_TAG_variable
	.dwattr $C$DW$229, DW_AT_name("n0200_")
	.dwattr $C$DW$229, DW_AT_TI_symbol_name("n0200_")
	.dwattr $C$DW$229, DW_AT_type(*$C$DW$T$10)
	.dwattr $C$DW$229, DW_AT_location[DW_OP_breg13 1884]

$C$DW$230	.dwtag  DW_TAG_variable
	.dwattr $C$DW$230, DW_AT_name("n0201_")
	.dwattr $C$DW$230, DW_AT_TI_symbol_name("n0201_")
	.dwattr $C$DW$230, DW_AT_type(*$C$DW$T$10)
	.dwattr $C$DW$230, DW_AT_location[DW_OP_breg13 1888]

$C$DW$231	.dwtag  DW_TAG_variable
	.dwattr $C$DW$231, DW_AT_name("n0202_")
	.dwattr $C$DW$231, DW_AT_TI_symbol_name("n0202_")
	.dwattr $C$DW$231, DW_AT_type(*$C$DW$T$10)
	.dwattr $C$DW$231, DW_AT_location[DW_OP_breg13 1892]

$C$DW$232	.dwtag  DW_TAG_variable
	.dwattr $C$DW$232, DW_AT_name("n0203_")
	.dwattr $C$DW$232, DW_AT_TI_symbol_name("n0203_")
	.dwattr $C$DW$232, DW_AT_type(*$C$DW$T$10)
	.dwattr $C$DW$232, DW_AT_location[DW_OP_breg13 1896]

$C$DW$233	.dwtag  DW_TAG_variable
	.dwattr $C$DW$233, DW_AT_name("n0204_")
	.dwattr $C$DW$233, DW_AT_TI_symbol_name("n0204_")
	.dwattr $C$DW$233, DW_AT_type(*$C$DW$T$10)
	.dwattr $C$DW$233, DW_AT_location[DW_OP_breg13 1900]

$C$DW$234	.dwtag  DW_TAG_variable
	.dwattr $C$DW$234, DW_AT_name("n0205_")
	.dwattr $C$DW$234, DW_AT_TI_symbol_name("n0205_")
	.dwattr $C$DW$234, DW_AT_type(*$C$DW$T$10)
	.dwattr $C$DW$234, DW_AT_location[DW_OP_breg13 1904]

$C$DW$235	.dwtag  DW_TAG_variable
	.dwattr $C$DW$235, DW_AT_name("n0206_")
	.dwattr $C$DW$235, DW_AT_TI_symbol_name("n0206_")
	.dwattr $C$DW$235, DW_AT_type(*$C$DW$T$10)
	.dwattr $C$DW$235, DW_AT_location[DW_OP_breg13 1908]

$C$DW$236	.dwtag  DW_TAG_variable
	.dwattr $C$DW$236, DW_AT_name("n0207_")
	.dwattr $C$DW$236, DW_AT_TI_symbol_name("n0207_")
	.dwattr $C$DW$236, DW_AT_type(*$C$DW$T$10)
	.dwattr $C$DW$236, DW_AT_location[DW_OP_breg13 1912]

$C$DW$237	.dwtag  DW_TAG_variable
	.dwattr $C$DW$237, DW_AT_name("n0208_")
	.dwattr $C$DW$237, DW_AT_TI_symbol_name("n0208_")
	.dwattr $C$DW$237, DW_AT_type(*$C$DW$T$10)
	.dwattr $C$DW$237, DW_AT_location[DW_OP_breg13 1916]

$C$DW$238	.dwtag  DW_TAG_variable
	.dwattr $C$DW$238, DW_AT_name("n0209_")
	.dwattr $C$DW$238, DW_AT_TI_symbol_name("n0209_")
	.dwattr $C$DW$238, DW_AT_type(*$C$DW$T$10)
	.dwattr $C$DW$238, DW_AT_location[DW_OP_breg13 1920]

$C$DW$239	.dwtag  DW_TAG_variable
	.dwattr $C$DW$239, DW_AT_name("n0210_")
	.dwattr $C$DW$239, DW_AT_TI_symbol_name("n0210_")
	.dwattr $C$DW$239, DW_AT_type(*$C$DW$T$10)
	.dwattr $C$DW$239, DW_AT_location[DW_OP_breg13 1924]

$C$DW$240	.dwtag  DW_TAG_variable
	.dwattr $C$DW$240, DW_AT_name("n0211_")
	.dwattr $C$DW$240, DW_AT_TI_symbol_name("n0211_")
	.dwattr $C$DW$240, DW_AT_type(*$C$DW$T$10)
	.dwattr $C$DW$240, DW_AT_location[DW_OP_breg13 1928]

$C$DW$241	.dwtag  DW_TAG_variable
	.dwattr $C$DW$241, DW_AT_name("n0212_")
	.dwattr $C$DW$241, DW_AT_TI_symbol_name("n0212_")
	.dwattr $C$DW$241, DW_AT_type(*$C$DW$T$10)
	.dwattr $C$DW$241, DW_AT_location[DW_OP_breg13 1932]

$C$DW$242	.dwtag  DW_TAG_variable
	.dwattr $C$DW$242, DW_AT_name("n0213_")
	.dwattr $C$DW$242, DW_AT_TI_symbol_name("n0213_")
	.dwattr $C$DW$242, DW_AT_type(*$C$DW$T$10)
	.dwattr $C$DW$242, DW_AT_location[DW_OP_breg13 1936]

$C$DW$243	.dwtag  DW_TAG_variable
	.dwattr $C$DW$243, DW_AT_name("n0214_")
	.dwattr $C$DW$243, DW_AT_TI_symbol_name("n0214_")
	.dwattr $C$DW$243, DW_AT_type(*$C$DW$T$10)
	.dwattr $C$DW$243, DW_AT_location[DW_OP_breg13 1940]

$C$DW$244	.dwtag  DW_TAG_variable
	.dwattr $C$DW$244, DW_AT_name("n0215_")
	.dwattr $C$DW$244, DW_AT_TI_symbol_name("n0215_")
	.dwattr $C$DW$244, DW_AT_type(*$C$DW$T$10)
	.dwattr $C$DW$244, DW_AT_location[DW_OP_breg13 1944]

$C$DW$245	.dwtag  DW_TAG_variable
	.dwattr $C$DW$245, DW_AT_name("n0216_")
	.dwattr $C$DW$245, DW_AT_TI_symbol_name("n0216_")
	.dwattr $C$DW$245, DW_AT_type(*$C$DW$T$10)
	.dwattr $C$DW$245, DW_AT_location[DW_OP_breg13 1948]

$C$DW$246	.dwtag  DW_TAG_variable
	.dwattr $C$DW$246, DW_AT_name("n0217_")
	.dwattr $C$DW$246, DW_AT_TI_symbol_name("n0217_")
	.dwattr $C$DW$246, DW_AT_type(*$C$DW$T$10)
	.dwattr $C$DW$246, DW_AT_location[DW_OP_breg13 1952]

$C$DW$247	.dwtag  DW_TAG_variable
	.dwattr $C$DW$247, DW_AT_name("n0218_")
	.dwattr $C$DW$247, DW_AT_TI_symbol_name("n0218_")
	.dwattr $C$DW$247, DW_AT_type(*$C$DW$T$10)
	.dwattr $C$DW$247, DW_AT_location[DW_OP_breg13 1956]

$C$DW$248	.dwtag  DW_TAG_variable
	.dwattr $C$DW$248, DW_AT_name("n0219_")
	.dwattr $C$DW$248, DW_AT_TI_symbol_name("n0219_")
	.dwattr $C$DW$248, DW_AT_type(*$C$DW$T$10)
	.dwattr $C$DW$248, DW_AT_location[DW_OP_breg13 1960]

$C$DW$249	.dwtag  DW_TAG_variable
	.dwattr $C$DW$249, DW_AT_name("n0220_")
	.dwattr $C$DW$249, DW_AT_TI_symbol_name("n0220_")
	.dwattr $C$DW$249, DW_AT_type(*$C$DW$T$10)
	.dwattr $C$DW$249, DW_AT_location[DW_OP_breg13 1964]

$C$DW$250	.dwtag  DW_TAG_variable
	.dwattr $C$DW$250, DW_AT_name("n0221_")
	.dwattr $C$DW$250, DW_AT_TI_symbol_name("n0221_")
	.dwattr $C$DW$250, DW_AT_type(*$C$DW$T$10)
	.dwattr $C$DW$250, DW_AT_location[DW_OP_breg13 1968]

$C$DW$251	.dwtag  DW_TAG_variable
	.dwattr $C$DW$251, DW_AT_name("n0222_")
	.dwattr $C$DW$251, DW_AT_TI_symbol_name("n0222_")
	.dwattr $C$DW$251, DW_AT_type(*$C$DW$T$10)
	.dwattr $C$DW$251, DW_AT_location[DW_OP_breg13 1972]

$C$DW$252	.dwtag  DW_TAG_variable
	.dwattr $C$DW$252, DW_AT_name("n0223_")
	.dwattr $C$DW$252, DW_AT_TI_symbol_name("n0223_")
	.dwattr $C$DW$252, DW_AT_type(*$C$DW$T$10)
	.dwattr $C$DW$252, DW_AT_location[DW_OP_breg13 1976]

$C$DW$253	.dwtag  DW_TAG_variable
	.dwattr $C$DW$253, DW_AT_name("n0224_")
	.dwattr $C$DW$253, DW_AT_TI_symbol_name("n0224_")
	.dwattr $C$DW$253, DW_AT_type(*$C$DW$T$10)
	.dwattr $C$DW$253, DW_AT_location[DW_OP_breg13 1980]

$C$DW$254	.dwtag  DW_TAG_variable
	.dwattr $C$DW$254, DW_AT_name("n0225_")
	.dwattr $C$DW$254, DW_AT_TI_symbol_name("n0225_")
	.dwattr $C$DW$254, DW_AT_type(*$C$DW$T$10)
	.dwattr $C$DW$254, DW_AT_location[DW_OP_breg13 1984]

$C$DW$255	.dwtag  DW_TAG_variable
	.dwattr $C$DW$255, DW_AT_name("n0226_")
	.dwattr $C$DW$255, DW_AT_TI_symbol_name("n0226_")
	.dwattr $C$DW$255, DW_AT_type(*$C$DW$T$10)
	.dwattr $C$DW$255, DW_AT_location[DW_OP_breg13 1988]

$C$DW$256	.dwtag  DW_TAG_variable
	.dwattr $C$DW$256, DW_AT_name("n0227_")
	.dwattr $C$DW$256, DW_AT_TI_symbol_name("n0227_")
	.dwattr $C$DW$256, DW_AT_type(*$C$DW$T$10)
	.dwattr $C$DW$256, DW_AT_location[DW_OP_breg13 1992]

$C$DW$257	.dwtag  DW_TAG_variable
	.dwattr $C$DW$257, DW_AT_name("n0228_")
	.dwattr $C$DW$257, DW_AT_TI_symbol_name("n0228_")
	.dwattr $C$DW$257, DW_AT_type(*$C$DW$T$10)
	.dwattr $C$DW$257, DW_AT_location[DW_OP_breg13 1996]

$C$DW$258	.dwtag  DW_TAG_variable
	.dwattr $C$DW$258, DW_AT_name("n0229_")
	.dwattr $C$DW$258, DW_AT_TI_symbol_name("n0229_")
	.dwattr $C$DW$258, DW_AT_type(*$C$DW$T$10)
	.dwattr $C$DW$258, DW_AT_location[DW_OP_breg13 2000]

$C$DW$259	.dwtag  DW_TAG_variable
	.dwattr $C$DW$259, DW_AT_name("n0230_")
	.dwattr $C$DW$259, DW_AT_TI_symbol_name("n0230_")
	.dwattr $C$DW$259, DW_AT_type(*$C$DW$T$10)
	.dwattr $C$DW$259, DW_AT_location[DW_OP_breg13 2004]

$C$DW$260	.dwtag  DW_TAG_variable
	.dwattr $C$DW$260, DW_AT_name("n0231_")
	.dwattr $C$DW$260, DW_AT_TI_symbol_name("n0231_")
	.dwattr $C$DW$260, DW_AT_type(*$C$DW$T$10)
	.dwattr $C$DW$260, DW_AT_location[DW_OP_breg13 2008]

$C$DW$261	.dwtag  DW_TAG_variable
	.dwattr $C$DW$261, DW_AT_name("n0232_")
	.dwattr $C$DW$261, DW_AT_TI_symbol_name("n0232_")
	.dwattr $C$DW$261, DW_AT_type(*$C$DW$T$10)
	.dwattr $C$DW$261, DW_AT_location[DW_OP_breg13 2012]

$C$DW$262	.dwtag  DW_TAG_variable
	.dwattr $C$DW$262, DW_AT_name("n0233_")
	.dwattr $C$DW$262, DW_AT_TI_symbol_name("n0233_")
	.dwattr $C$DW$262, DW_AT_type(*$C$DW$T$10)
	.dwattr $C$DW$262, DW_AT_location[DW_OP_breg13 2016]

$C$DW$263	.dwtag  DW_TAG_variable
	.dwattr $C$DW$263, DW_AT_name("n0234_")
	.dwattr $C$DW$263, DW_AT_TI_symbol_name("n0234_")
	.dwattr $C$DW$263, DW_AT_type(*$C$DW$T$10)
	.dwattr $C$DW$263, DW_AT_location[DW_OP_breg13 2020]

$C$DW$264	.dwtag  DW_TAG_variable
	.dwattr $C$DW$264, DW_AT_name("n0235_")
	.dwattr $C$DW$264, DW_AT_TI_symbol_name("n0235_")
	.dwattr $C$DW$264, DW_AT_type(*$C$DW$T$10)
	.dwattr $C$DW$264, DW_AT_location[DW_OP_breg13 2024]

$C$DW$265	.dwtag  DW_TAG_variable
	.dwattr $C$DW$265, DW_AT_name("n0236_")
	.dwattr $C$DW$265, DW_AT_TI_symbol_name("n0236_")
	.dwattr $C$DW$265, DW_AT_type(*$C$DW$T$10)
	.dwattr $C$DW$265, DW_AT_location[DW_OP_breg13 2028]

$C$DW$266	.dwtag  DW_TAG_variable
	.dwattr $C$DW$266, DW_AT_name("n0237_")
	.dwattr $C$DW$266, DW_AT_TI_symbol_name("n0237_")
	.dwattr $C$DW$266, DW_AT_type(*$C$DW$T$10)
	.dwattr $C$DW$266, DW_AT_location[DW_OP_breg13 2032]

$C$DW$267	.dwtag  DW_TAG_variable
	.dwattr $C$DW$267, DW_AT_name("n0238_")
	.dwattr $C$DW$267, DW_AT_TI_symbol_name("n0238_")
	.dwattr $C$DW$267, DW_AT_type(*$C$DW$T$10)
	.dwattr $C$DW$267, DW_AT_location[DW_OP_breg13 2036]

$C$DW$268	.dwtag  DW_TAG_variable
	.dwattr $C$DW$268, DW_AT_name("n0239_")
	.dwattr $C$DW$268, DW_AT_TI_symbol_name("n0239_")
	.dwattr $C$DW$268, DW_AT_type(*$C$DW$T$10)
	.dwattr $C$DW$268, DW_AT_location[DW_OP_breg13 2040]

$C$DW$269	.dwtag  DW_TAG_variable
	.dwattr $C$DW$269, DW_AT_name("n0240_")
	.dwattr $C$DW$269, DW_AT_TI_symbol_name("n0240_")
	.dwattr $C$DW$269, DW_AT_type(*$C$DW$T$10)
	.dwattr $C$DW$269, DW_AT_location[DW_OP_breg13 2044]

$C$DW$270	.dwtag  DW_TAG_variable
	.dwattr $C$DW$270, DW_AT_name("n0241_")
	.dwattr $C$DW$270, DW_AT_TI_symbol_name("n0241_")
	.dwattr $C$DW$270, DW_AT_type(*$C$DW$T$10)
	.dwattr $C$DW$270, DW_AT_location[DW_OP_breg13 2048]

$C$DW$271	.dwtag  DW_TAG_variable
	.dwattr $C$DW$271, DW_AT_name("n0242_")
	.dwattr $C$DW$271, DW_AT_TI_symbol_name("n0242_")
	.dwattr $C$DW$271, DW_AT_type(*$C$DW$T$10)
	.dwattr $C$DW$271, DW_AT_location[DW_OP_breg13 2052]

$C$DW$272	.dwtag  DW_TAG_variable
	.dwattr $C$DW$272, DW_AT_name("n0243_")
	.dwattr $C$DW$272, DW_AT_TI_symbol_name("n0243_")
	.dwattr $C$DW$272, DW_AT_type(*$C$DW$T$10)
	.dwattr $C$DW$272, DW_AT_location[DW_OP_breg13 2056]

$C$DW$273	.dwtag  DW_TAG_variable
	.dwattr $C$DW$273, DW_AT_name("n0244_")
	.dwattr $C$DW$273, DW_AT_TI_symbol_name("n0244_")
	.dwattr $C$DW$273, DW_AT_type(*$C$DW$T$10)
	.dwattr $C$DW$273, DW_AT_location[DW_OP_breg13 2060]

$C$DW$274	.dwtag  DW_TAG_variable
	.dwattr $C$DW$274, DW_AT_name("n0245_")
	.dwattr $C$DW$274, DW_AT_TI_symbol_name("n0245_")
	.dwattr $C$DW$274, DW_AT_type(*$C$DW$T$10)
	.dwattr $C$DW$274, DW_AT_location[DW_OP_breg13 2064]

$C$DW$275	.dwtag  DW_TAG_variable
	.dwattr $C$DW$275, DW_AT_name("n0246_")
	.dwattr $C$DW$275, DW_AT_TI_symbol_name("n0246_")
	.dwattr $C$DW$275, DW_AT_type(*$C$DW$T$10)
	.dwattr $C$DW$275, DW_AT_location[DW_OP_breg13 2068]

$C$DW$276	.dwtag  DW_TAG_variable
	.dwattr $C$DW$276, DW_AT_name("n0247_")
	.dwattr $C$DW$276, DW_AT_TI_symbol_name("n0247_")
	.dwattr $C$DW$276, DW_AT_type(*$C$DW$T$10)
	.dwattr $C$DW$276, DW_AT_location[DW_OP_breg13 2072]

$C$DW$277	.dwtag  DW_TAG_variable
	.dwattr $C$DW$277, DW_AT_name("n0248_")
	.dwattr $C$DW$277, DW_AT_TI_symbol_name("n0248_")
	.dwattr $C$DW$277, DW_AT_type(*$C$DW$T$10)
	.dwattr $C$DW$277, DW_AT_location[DW_OP_breg13 2076]

$C$DW$278	.dwtag  DW_TAG_variable
	.dwattr $C$DW$278, DW_AT_name("n0249_")
	.dwattr $C$DW$278, DW_AT_TI_symbol_name("n0249_")
	.dwattr $C$DW$278, DW_AT_type(*$C$DW$T$10)
	.dwattr $C$DW$278, DW_AT_location[DW_OP_breg13 2080]

$C$DW$279	.dwtag  DW_TAG_variable
	.dwattr $C$DW$279, DW_AT_name("n0250_")
	.dwattr $C$DW$279, DW_AT_TI_symbol_name("n0250_")
	.dwattr $C$DW$279, DW_AT_type(*$C$DW$T$10)
	.dwattr $C$DW$279, DW_AT_location[DW_OP_breg13 2084]

$C$DW$280	.dwtag  DW_TAG_variable
	.dwattr $C$DW$280, DW_AT_name("n0251_")
	.dwattr $C$DW$280, DW_AT_TI_symbol_name("n0251_")
	.dwattr $C$DW$280, DW_AT_type(*$C$DW$T$10)
	.dwattr $C$DW$280, DW_AT_location[DW_OP_breg13 2088]

$C$DW$281	.dwtag  DW_TAG_variable
	.dwattr $C$DW$281, DW_AT_name("n0252_")
	.dwattr $C$DW$281, DW_AT_TI_symbol_name("n0252_")
	.dwattr $C$DW$281, DW_AT_type(*$C$DW$T$10)
	.dwattr $C$DW$281, DW_AT_location[DW_OP_breg13 2092]

$C$DW$282	.dwtag  DW_TAG_variable
	.dwattr $C$DW$282, DW_AT_name("n0253_")
	.dwattr $C$DW$282, DW_AT_TI_symbol_name("n0253_")
	.dwattr $C$DW$282, DW_AT_type(*$C$DW$T$10)
	.dwattr $C$DW$282, DW_AT_location[DW_OP_breg13 2096]

$C$DW$283	.dwtag  DW_TAG_variable
	.dwattr $C$DW$283, DW_AT_name("n0254_")
	.dwattr $C$DW$283, DW_AT_TI_symbol_name("n0254_")
	.dwattr $C$DW$283, DW_AT_type(*$C$DW$T$10)
	.dwattr $C$DW$283, DW_AT_location[DW_OP_breg13 2100]

$C$DW$284	.dwtag  DW_TAG_variable
	.dwattr $C$DW$284, DW_AT_name("n0255_")
	.dwattr $C$DW$284, DW_AT_TI_symbol_name("n0255_")
	.dwattr $C$DW$284, DW_AT_type(*$C$DW$T$10)
	.dwattr $C$DW$284, DW_AT_location[DW_OP_breg13 2104]

$C$DW$285	.dwtag  DW_TAG_variable
	.dwattr $C$DW$285, DW_AT_name("n0256_")
	.dwattr $C$DW$285, DW_AT_TI_symbol_name("n0256_")
	.dwattr $C$DW$285, DW_AT_type(*$C$DW$T$10)
	.dwattr $C$DW$285, DW_AT_location[DW_OP_breg13 2108]

$C$DW$286	.dwtag  DW_TAG_variable
	.dwattr $C$DW$286, DW_AT_name("n0257_")
	.dwattr $C$DW$286, DW_AT_TI_symbol_name("n0257_")
	.dwattr $C$DW$286, DW_AT_type(*$C$DW$T$10)
	.dwattr $C$DW$286, DW_AT_location[DW_OP_breg13 2112]

$C$DW$287	.dwtag  DW_TAG_variable
	.dwattr $C$DW$287, DW_AT_name("n0258_")
	.dwattr $C$DW$287, DW_AT_TI_symbol_name("n0258_")
	.dwattr $C$DW$287, DW_AT_type(*$C$DW$T$10)
	.dwattr $C$DW$287, DW_AT_location[DW_OP_breg13 2116]

$C$DW$288	.dwtag  DW_TAG_variable
	.dwattr $C$DW$288, DW_AT_name("n0259_")
	.dwattr $C$DW$288, DW_AT_TI_symbol_name("n0259_")
	.dwattr $C$DW$288, DW_AT_type(*$C$DW$T$10)
	.dwattr $C$DW$288, DW_AT_location[DW_OP_breg13 2120]

$C$DW$289	.dwtag  DW_TAG_variable
	.dwattr $C$DW$289, DW_AT_name("n0260_")
	.dwattr $C$DW$289, DW_AT_TI_symbol_name("n0260_")
	.dwattr $C$DW$289, DW_AT_type(*$C$DW$T$10)
	.dwattr $C$DW$289, DW_AT_location[DW_OP_breg13 2124]

$C$DW$290	.dwtag  DW_TAG_variable
	.dwattr $C$DW$290, DW_AT_name("n0261_")
	.dwattr $C$DW$290, DW_AT_TI_symbol_name("n0261_")
	.dwattr $C$DW$290, DW_AT_type(*$C$DW$T$10)
	.dwattr $C$DW$290, DW_AT_location[DW_OP_breg13 2128]

$C$DW$291	.dwtag  DW_TAG_variable
	.dwattr $C$DW$291, DW_AT_name("n0262_")
	.dwattr $C$DW$291, DW_AT_TI_symbol_name("n0262_")
	.dwattr $C$DW$291, DW_AT_type(*$C$DW$T$10)
	.dwattr $C$DW$291, DW_AT_location[DW_OP_breg13 2132]

$C$DW$292	.dwtag  DW_TAG_variable
	.dwattr $C$DW$292, DW_AT_name("n0263_")
	.dwattr $C$DW$292, DW_AT_TI_symbol_name("n0263_")
	.dwattr $C$DW$292, DW_AT_type(*$C$DW$T$10)
	.dwattr $C$DW$292, DW_AT_location[DW_OP_breg13 2136]

$C$DW$293	.dwtag  DW_TAG_variable
	.dwattr $C$DW$293, DW_AT_name("n0264_")
	.dwattr $C$DW$293, DW_AT_TI_symbol_name("n0264_")
	.dwattr $C$DW$293, DW_AT_type(*$C$DW$T$10)
	.dwattr $C$DW$293, DW_AT_location[DW_OP_breg13 2140]

$C$DW$294	.dwtag  DW_TAG_variable
	.dwattr $C$DW$294, DW_AT_name("n0265_")
	.dwattr $C$DW$294, DW_AT_TI_symbol_name("n0265_")
	.dwattr $C$DW$294, DW_AT_type(*$C$DW$T$10)
	.dwattr $C$DW$294, DW_AT_location[DW_OP_breg13 2144]

$C$DW$295	.dwtag  DW_TAG_variable
	.dwattr $C$DW$295, DW_AT_name("n0266_")
	.dwattr $C$DW$295, DW_AT_TI_symbol_name("n0266_")
	.dwattr $C$DW$295, DW_AT_type(*$C$DW$T$10)
	.dwattr $C$DW$295, DW_AT_location[DW_OP_breg13 2148]

$C$DW$296	.dwtag  DW_TAG_variable
	.dwattr $C$DW$296, DW_AT_name("n0267_")
	.dwattr $C$DW$296, DW_AT_TI_symbol_name("n0267_")
	.dwattr $C$DW$296, DW_AT_type(*$C$DW$T$10)
	.dwattr $C$DW$296, DW_AT_location[DW_OP_breg13 2152]

$C$DW$297	.dwtag  DW_TAG_variable
	.dwattr $C$DW$297, DW_AT_name("n0268_")
	.dwattr $C$DW$297, DW_AT_TI_symbol_name("n0268_")
	.dwattr $C$DW$297, DW_AT_type(*$C$DW$T$10)
	.dwattr $C$DW$297, DW_AT_location[DW_OP_breg13 2156]

$C$DW$298	.dwtag  DW_TAG_variable
	.dwattr $C$DW$298, DW_AT_name("n0269_")
	.dwattr $C$DW$298, DW_AT_TI_symbol_name("n0269_")
	.dwattr $C$DW$298, DW_AT_type(*$C$DW$T$10)
	.dwattr $C$DW$298, DW_AT_location[DW_OP_breg13 2160]

$C$DW$299	.dwtag  DW_TAG_variable
	.dwattr $C$DW$299, DW_AT_name("n0270_")
	.dwattr $C$DW$299, DW_AT_TI_symbol_name("n0270_")
	.dwattr $C$DW$299, DW_AT_type(*$C$DW$T$10)
	.dwattr $C$DW$299, DW_AT_location[DW_OP_breg13 2164]

$C$DW$300	.dwtag  DW_TAG_variable
	.dwattr $C$DW$300, DW_AT_name("n0271_")
	.dwattr $C$DW$300, DW_AT_TI_symbol_name("n0271_")
	.dwattr $C$DW$300, DW_AT_type(*$C$DW$T$10)
	.dwattr $C$DW$300, DW_AT_location[DW_OP_breg13 2168]

$C$DW$301	.dwtag  DW_TAG_variable
	.dwattr $C$DW$301, DW_AT_name("n0272_")
	.dwattr $C$DW$301, DW_AT_TI_symbol_name("n0272_")
	.dwattr $C$DW$301, DW_AT_type(*$C$DW$T$10)
	.dwattr $C$DW$301, DW_AT_location[DW_OP_breg13 2172]

$C$DW$302	.dwtag  DW_TAG_variable
	.dwattr $C$DW$302, DW_AT_name("n0273_")
	.dwattr $C$DW$302, DW_AT_TI_symbol_name("n0273_")
	.dwattr $C$DW$302, DW_AT_type(*$C$DW$T$10)
	.dwattr $C$DW$302, DW_AT_location[DW_OP_breg13 2176]

$C$DW$303	.dwtag  DW_TAG_variable
	.dwattr $C$DW$303, DW_AT_name("n0274_")
	.dwattr $C$DW$303, DW_AT_TI_symbol_name("n0274_")
	.dwattr $C$DW$303, DW_AT_type(*$C$DW$T$10)
	.dwattr $C$DW$303, DW_AT_location[DW_OP_breg13 2180]

$C$DW$304	.dwtag  DW_TAG_variable
	.dwattr $C$DW$304, DW_AT_name("n0275_")
	.dwattr $C$DW$304, DW_AT_TI_symbol_name("n0275_")
	.dwattr $C$DW$304, DW_AT_type(*$C$DW$T$10)
	.dwattr $C$DW$304, DW_AT_location[DW_OP_breg13 2184]

$C$DW$305	.dwtag  DW_TAG_variable
	.dwattr $C$DW$305, DW_AT_name("n0276_")
	.dwattr $C$DW$305, DW_AT_TI_symbol_name("n0276_")
	.dwattr $C$DW$305, DW_AT_type(*$C$DW$T$10)
	.dwattr $C$DW$305, DW_AT_location[DW_OP_breg13 2188]

$C$DW$306	.dwtag  DW_TAG_variable
	.dwattr $C$DW$306, DW_AT_name("n0277_")
	.dwattr $C$DW$306, DW_AT_TI_symbol_name("n0277_")
	.dwattr $C$DW$306, DW_AT_type(*$C$DW$T$10)
	.dwattr $C$DW$306, DW_AT_location[DW_OP_breg13 2192]

$C$DW$307	.dwtag  DW_TAG_variable
	.dwattr $C$DW$307, DW_AT_name("n0278_")
	.dwattr $C$DW$307, DW_AT_TI_symbol_name("n0278_")
	.dwattr $C$DW$307, DW_AT_type(*$C$DW$T$10)
	.dwattr $C$DW$307, DW_AT_location[DW_OP_breg13 2196]

$C$DW$308	.dwtag  DW_TAG_variable
	.dwattr $C$DW$308, DW_AT_name("n0279_")
	.dwattr $C$DW$308, DW_AT_TI_symbol_name("n0279_")
	.dwattr $C$DW$308, DW_AT_type(*$C$DW$T$10)
	.dwattr $C$DW$308, DW_AT_location[DW_OP_breg13 2200]

$C$DW$309	.dwtag  DW_TAG_variable
	.dwattr $C$DW$309, DW_AT_name("n0280_")
	.dwattr $C$DW$309, DW_AT_TI_symbol_name("n0280_")
	.dwattr $C$DW$309, DW_AT_type(*$C$DW$T$10)
	.dwattr $C$DW$309, DW_AT_location[DW_OP_breg13 2204]

$C$DW$310	.dwtag  DW_TAG_variable
	.dwattr $C$DW$310, DW_AT_name("n0281_")
	.dwattr $C$DW$310, DW_AT_TI_symbol_name("n0281_")
	.dwattr $C$DW$310, DW_AT_type(*$C$DW$T$10)
	.dwattr $C$DW$310, DW_AT_location[DW_OP_breg13 2208]

$C$DW$311	.dwtag  DW_TAG_variable
	.dwattr $C$DW$311, DW_AT_name("n0282_")
	.dwattr $C$DW$311, DW_AT_TI_symbol_name("n0282_")
	.dwattr $C$DW$311, DW_AT_type(*$C$DW$T$10)
	.dwattr $C$DW$311, DW_AT_location[DW_OP_breg13 2212]

$C$DW$312	.dwtag  DW_TAG_variable
	.dwattr $C$DW$312, DW_AT_name("n0283_")
	.dwattr $C$DW$312, DW_AT_TI_symbol_name("n0283_")
	.dwattr $C$DW$312, DW_AT_type(*$C$DW$T$10)
	.dwattr $C$DW$312, DW_AT_location[DW_OP_breg13 2216]

$C$DW$313	.dwtag  DW_TAG_variable
	.dwattr $C$DW$313, DW_AT_name("n0284_")
	.dwattr $C$DW$313, DW_AT_TI_symbol_name("n0284_")
	.dwattr $C$DW$313, DW_AT_type(*$C$DW$T$10)
	.dwattr $C$DW$313, DW_AT_location[DW_OP_breg13 2220]

$C$DW$314	.dwtag  DW_TAG_variable
	.dwattr $C$DW$314, DW_AT_name("n0285_")
	.dwattr $C$DW$314, DW_AT_TI_symbol_name("n0285_")
	.dwattr $C$DW$314, DW_AT_type(*$C$DW$T$10)
	.dwattr $C$DW$314, DW_AT_location[DW_OP_breg13 2224]

$C$DW$315	.dwtag  DW_TAG_variable
	.dwattr $C$DW$315, DW_AT_name("n0286_")
	.dwattr $C$DW$315, DW_AT_TI_symbol_name("n0286_")
	.dwattr $C$DW$315, DW_AT_type(*$C$DW$T$10)
	.dwattr $C$DW$315, DW_AT_location[DW_OP_breg13 2228]

$C$DW$316	.dwtag  DW_TAG_variable
	.dwattr $C$DW$316, DW_AT_name("n0287_")
	.dwattr $C$DW$316, DW_AT_TI_symbol_name("n0287_")
	.dwattr $C$DW$316, DW_AT_type(*$C$DW$T$10)
	.dwattr $C$DW$316, DW_AT_location[DW_OP_breg13 2232]

$C$DW$317	.dwtag  DW_TAG_variable
	.dwattr $C$DW$317, DW_AT_name("n0288_")
	.dwattr $C$DW$317, DW_AT_TI_symbol_name("n0288_")
	.dwattr $C$DW$317, DW_AT_type(*$C$DW$T$10)
	.dwattr $C$DW$317, DW_AT_location[DW_OP_breg13 2236]

$C$DW$318	.dwtag  DW_TAG_variable
	.dwattr $C$DW$318, DW_AT_name("n0289_")
	.dwattr $C$DW$318, DW_AT_TI_symbol_name("n0289_")
	.dwattr $C$DW$318, DW_AT_type(*$C$DW$T$10)
	.dwattr $C$DW$318, DW_AT_location[DW_OP_breg13 2240]

$C$DW$319	.dwtag  DW_TAG_variable
	.dwattr $C$DW$319, DW_AT_name("n0290_")
	.dwattr $C$DW$319, DW_AT_TI_symbol_name("n0290_")
	.dwattr $C$DW$319, DW_AT_type(*$C$DW$T$10)
	.dwattr $C$DW$319, DW_AT_location[DW_OP_breg13 2244]

$C$DW$320	.dwtag  DW_TAG_variable
	.dwattr $C$DW$320, DW_AT_name("n0291_")
	.dwattr $C$DW$320, DW_AT_TI_symbol_name("n0291_")
	.dwattr $C$DW$320, DW_AT_type(*$C$DW$T$10)
	.dwattr $C$DW$320, DW_AT_location[DW_OP_breg13 2248]

$C$DW$321	.dwtag  DW_TAG_variable
	.dwattr $C$DW$321, DW_AT_name("n0292_")
	.dwattr $C$DW$321, DW_AT_TI_symbol_name("n0292_")
	.dwattr $C$DW$321, DW_AT_type(*$C$DW$T$10)
	.dwattr $C$DW$321, DW_AT_location[DW_OP_breg13 2252]

$C$DW$322	.dwtag  DW_TAG_variable
	.dwattr $C$DW$322, DW_AT_name("n0293_")
	.dwattr $C$DW$322, DW_AT_TI_symbol_name("n0293_")
	.dwattr $C$DW$322, DW_AT_type(*$C$DW$T$10)
	.dwattr $C$DW$322, DW_AT_location[DW_OP_breg13 2256]

$C$DW$323	.dwtag  DW_TAG_variable
	.dwattr $C$DW$323, DW_AT_name("n0294_")
	.dwattr $C$DW$323, DW_AT_TI_symbol_name("n0294_")
	.dwattr $C$DW$323, DW_AT_type(*$C$DW$T$10)
	.dwattr $C$DW$323, DW_AT_location[DW_OP_breg13 2260]

$C$DW$324	.dwtag  DW_TAG_variable
	.dwattr $C$DW$324, DW_AT_name("n0295_")
	.dwattr $C$DW$324, DW_AT_TI_symbol_name("n0295_")
	.dwattr $C$DW$324, DW_AT_type(*$C$DW$T$10)
	.dwattr $C$DW$324, DW_AT_location[DW_OP_breg13 2264]

$C$DW$325	.dwtag  DW_TAG_variable
	.dwattr $C$DW$325, DW_AT_name("n0296_")
	.dwattr $C$DW$325, DW_AT_TI_symbol_name("n0296_")
	.dwattr $C$DW$325, DW_AT_type(*$C$DW$T$10)
	.dwattr $C$DW$325, DW_AT_location[DW_OP_breg13 2268]

$C$DW$326	.dwtag  DW_TAG_variable
	.dwattr $C$DW$326, DW_AT_name("n0297_")
	.dwattr $C$DW$326, DW_AT_TI_symbol_name("n0297_")
	.dwattr $C$DW$326, DW_AT_type(*$C$DW$T$10)
	.dwattr $C$DW$326, DW_AT_location[DW_OP_breg13 2272]

$C$DW$327	.dwtag  DW_TAG_variable
	.dwattr $C$DW$327, DW_AT_name("n0298_")
	.dwattr $C$DW$327, DW_AT_TI_symbol_name("n0298_")
	.dwattr $C$DW$327, DW_AT_type(*$C$DW$T$10)
	.dwattr $C$DW$327, DW_AT_location[DW_OP_breg13 2276]

$C$DW$328	.dwtag  DW_TAG_variable
	.dwattr $C$DW$328, DW_AT_name("n0299_")
	.dwattr $C$DW$328, DW_AT_TI_symbol_name("n0299_")
	.dwattr $C$DW$328, DW_AT_type(*$C$DW$T$10)
	.dwattr $C$DW$328, DW_AT_location[DW_OP_breg13 2280]

$C$DW$329	.dwtag  DW_TAG_variable
	.dwattr $C$DW$329, DW_AT_name("n0300_")
	.dwattr $C$DW$329, DW_AT_TI_symbol_name("n0300_")
	.dwattr $C$DW$329, DW_AT_type(*$C$DW$T$10)
	.dwattr $C$DW$329, DW_AT_location[DW_OP_breg13 2284]

$C$DW$330	.dwtag  DW_TAG_variable
	.dwattr $C$DW$330, DW_AT_name("n0301_")
	.dwattr $C$DW$330, DW_AT_TI_symbol_name("n0301_")
	.dwattr $C$DW$330, DW_AT_type(*$C$DW$T$10)
	.dwattr $C$DW$330, DW_AT_location[DW_OP_breg13 2288]

$C$DW$331	.dwtag  DW_TAG_variable
	.dwattr $C$DW$331, DW_AT_name("n0302_")
	.dwattr $C$DW$331, DW_AT_TI_symbol_name("n0302_")
	.dwattr $C$DW$331, DW_AT_type(*$C$DW$T$10)
	.dwattr $C$DW$331, DW_AT_location[DW_OP_breg13 2292]

$C$DW$332	.dwtag  DW_TAG_variable
	.dwattr $C$DW$332, DW_AT_name("n0303_")
	.dwattr $C$DW$332, DW_AT_TI_symbol_name("n0303_")
	.dwattr $C$DW$332, DW_AT_type(*$C$DW$T$10)
	.dwattr $C$DW$332, DW_AT_location[DW_OP_breg13 2296]

$C$DW$333	.dwtag  DW_TAG_variable
	.dwattr $C$DW$333, DW_AT_name("n0304_")
	.dwattr $C$DW$333, DW_AT_TI_symbol_name("n0304_")
	.dwattr $C$DW$333, DW_AT_type(*$C$DW$T$10)
	.dwattr $C$DW$333, DW_AT_location[DW_OP_breg13 2300]

$C$DW$334	.dwtag  DW_TAG_variable
	.dwattr $C$DW$334, DW_AT_name("n0305_")
	.dwattr $C$DW$334, DW_AT_TI_symbol_name("n0305_")
	.dwattr $C$DW$334, DW_AT_type(*$C$DW$T$10)
	.dwattr $C$DW$334, DW_AT_location[DW_OP_breg13 2304]

$C$DW$335	.dwtag  DW_TAG_variable
	.dwattr $C$DW$335, DW_AT_name("n0306_")
	.dwattr $C$DW$335, DW_AT_TI_symbol_name("n0306_")
	.dwattr $C$DW$335, DW_AT_type(*$C$DW$T$10)
	.dwattr $C$DW$335, DW_AT_location[DW_OP_breg13 2308]

$C$DW$336	.dwtag  DW_TAG_variable
	.dwattr $C$DW$336, DW_AT_name("n0307_")
	.dwattr $C$DW$336, DW_AT_TI_symbol_name("n0307_")
	.dwattr $C$DW$336, DW_AT_type(*$C$DW$T$10)
	.dwattr $C$DW$336, DW_AT_location[DW_OP_breg13 2312]

$C$DW$337	.dwtag  DW_TAG_variable
	.dwattr $C$DW$337, DW_AT_name("n0308_")
	.dwattr $C$DW$337, DW_AT_TI_symbol_name("n0308_")
	.dwattr $C$DW$337, DW_AT_type(*$C$DW$T$10)
	.dwattr $C$DW$337, DW_AT_location[DW_OP_breg13 2316]

$C$DW$338	.dwtag  DW_TAG_variable
	.dwattr $C$DW$338, DW_AT_name("n0309_")
	.dwattr $C$DW$338, DW_AT_TI_symbol_name("n0309_")
	.dwattr $C$DW$338, DW_AT_type(*$C$DW$T$10)
	.dwattr $C$DW$338, DW_AT_location[DW_OP_breg13 2320]

$C$DW$339	.dwtag  DW_TAG_variable
	.dwattr $C$DW$339, DW_AT_name("n0310_")
	.dwattr $C$DW$339, DW_AT_TI_symbol_name("n0310_")
	.dwattr $C$DW$339, DW_AT_type(*$C$DW$T$10)
	.dwattr $C$DW$339, DW_AT_location[DW_OP_breg13 2324]

$C$DW$340	.dwtag  DW_TAG_variable
	.dwattr $C$DW$340, DW_AT_name("n0311_")
	.dwattr $C$DW$340, DW_AT_TI_symbol_name("n0311_")
	.dwattr $C$DW$340, DW_AT_type(*$C$DW$T$10)
	.dwattr $C$DW$340, DW_AT_location[DW_OP_breg13 2328]

$C$DW$341	.dwtag  DW_TAG_variable
	.dwattr $C$DW$341, DW_AT_name("n0312_")
	.dwattr $C$DW$341, DW_AT_TI_symbol_name("n0312_")
	.dwattr $C$DW$341, DW_AT_type(*$C$DW$T$10)
	.dwattr $C$DW$341, DW_AT_location[DW_OP_breg13 2332]

$C$DW$342	.dwtag  DW_TAG_variable
	.dwattr $C$DW$342, DW_AT_name("n0313_")
	.dwattr $C$DW$342, DW_AT_TI_symbol_name("n0313_")
	.dwattr $C$DW$342, DW_AT_type(*$C$DW$T$10)
	.dwattr $C$DW$342, DW_AT_location[DW_OP_breg13 2336]

$C$DW$343	.dwtag  DW_TAG_variable
	.dwattr $C$DW$343, DW_AT_name("n0314_")
	.dwattr $C$DW$343, DW_AT_TI_symbol_name("n0314_")
	.dwattr $C$DW$343, DW_AT_type(*$C$DW$T$10)
	.dwattr $C$DW$343, DW_AT_location[DW_OP_breg13 2340]

$C$DW$344	.dwtag  DW_TAG_variable
	.dwattr $C$DW$344, DW_AT_name("n0315_")
	.dwattr $C$DW$344, DW_AT_TI_symbol_name("n0315_")
	.dwattr $C$DW$344, DW_AT_type(*$C$DW$T$10)
	.dwattr $C$DW$344, DW_AT_location[DW_OP_breg13 2344]

$C$DW$345	.dwtag  DW_TAG_variable
	.dwattr $C$DW$345, DW_AT_name("n0316_")
	.dwattr $C$DW$345, DW_AT_TI_symbol_name("n0316_")
	.dwattr $C$DW$345, DW_AT_type(*$C$DW$T$10)
	.dwattr $C$DW$345, DW_AT_location[DW_OP_breg13 2348]

$C$DW$346	.dwtag  DW_TAG_variable
	.dwattr $C$DW$346, DW_AT_name("n0317_")
	.dwattr $C$DW$346, DW_AT_TI_symbol_name("n0317_")
	.dwattr $C$DW$346, DW_AT_type(*$C$DW$T$10)
	.dwattr $C$DW$346, DW_AT_location[DW_OP_breg13 2352]

$C$DW$347	.dwtag  DW_TAG_variable
	.dwattr $C$DW$347, DW_AT_name("n0318_")
	.dwattr $C$DW$347, DW_AT_TI_symbol_name("n0318_")
	.dwattr $C$DW$347, DW_AT_type(*$C$DW$T$10)
	.dwattr $C$DW$347, DW_AT_location[DW_OP_breg13 2356]

$C$DW$348	.dwtag  DW_TAG_variable
	.dwattr $C$DW$348, DW_AT_name("n0319_")
	.dwattr $C$DW$348, DW_AT_TI_symbol_name("n0319_")
	.dwattr $C$DW$348, DW_AT_type(*$C$DW$T$10)
	.dwattr $C$DW$348, DW_AT_location[DW_OP_breg13 2360]

$C$DW$349	.dwtag  DW_TAG_variable
	.dwattr $C$DW$349, DW_AT_name("n0320_")
	.dwattr $C$DW$349, DW_AT_TI_symbol_name("n0320_")
	.dwattr $C$DW$349, DW_AT_type(*$C$DW$T$10)
	.dwattr $C$DW$349, DW_AT_location[DW_OP_breg13 2364]

$C$DW$350	.dwtag  DW_TAG_variable
	.dwattr $C$DW$350, DW_AT_name("n0321_")
	.dwattr $C$DW$350, DW_AT_TI_symbol_name("n0321_")
	.dwattr $C$DW$350, DW_AT_type(*$C$DW$T$10)
	.dwattr $C$DW$350, DW_AT_location[DW_OP_breg13 2368]

$C$DW$351	.dwtag  DW_TAG_variable
	.dwattr $C$DW$351, DW_AT_name("n0322_")
	.dwattr $C$DW$351, DW_AT_TI_symbol_name("n0322_")
	.dwattr $C$DW$351, DW_AT_type(*$C$DW$T$10)
	.dwattr $C$DW$351, DW_AT_location[DW_OP_breg13 2372]

$C$DW$352	.dwtag  DW_TAG_variable
	.dwattr $C$DW$352, DW_AT_name("n0323_")
	.dwattr $C$DW$352, DW_AT_TI_symbol_name("n0323_")
	.dwattr $C$DW$352, DW_AT_type(*$C$DW$T$10)
	.dwattr $C$DW$352, DW_AT_location[DW_OP_breg13 2376]

$C$DW$353	.dwtag  DW_TAG_variable
	.dwattr $C$DW$353, DW_AT_name("n0324_")
	.dwattr $C$DW$353, DW_AT_TI_symbol_name("n0324_")
	.dwattr $C$DW$353, DW_AT_type(*$C$DW$T$10)
	.dwattr $C$DW$353, DW_AT_location[DW_OP_breg13 2380]

$C$DW$354	.dwtag  DW_TAG_variable
	.dwattr $C$DW$354, DW_AT_name("n0325_")
	.dwattr $C$DW$354, DW_AT_TI_symbol_name("n0325_")
	.dwattr $C$DW$354, DW_AT_type(*$C$DW$T$10)
	.dwattr $C$DW$354, DW_AT_location[DW_OP_breg13 2384]

$C$DW$355	.dwtag  DW_TAG_variable
	.dwattr $C$DW$355, DW_AT_name("n0326_")
	.dwattr $C$DW$355, DW_AT_TI_symbol_name("n0326_")
	.dwattr $C$DW$355, DW_AT_type(*$C$DW$T$10)
	.dwattr $C$DW$355, DW_AT_location[DW_OP_breg13 2388]

$C$DW$356	.dwtag  DW_TAG_variable
	.dwattr $C$DW$356, DW_AT_name("n0327_")
	.dwattr $C$DW$356, DW_AT_TI_symbol_name("n0327_")
	.dwattr $C$DW$356, DW_AT_type(*$C$DW$T$10)
	.dwattr $C$DW$356, DW_AT_location[DW_OP_breg13 2392]

$C$DW$357	.dwtag  DW_TAG_variable
	.dwattr $C$DW$357, DW_AT_name("n0328_")
	.dwattr $C$DW$357, DW_AT_TI_symbol_name("n0328_")
	.dwattr $C$DW$357, DW_AT_type(*$C$DW$T$10)
	.dwattr $C$DW$357, DW_AT_location[DW_OP_breg13 2396]

$C$DW$358	.dwtag  DW_TAG_variable
	.dwattr $C$DW$358, DW_AT_name("n0329_")
	.dwattr $C$DW$358, DW_AT_TI_symbol_name("n0329_")
	.dwattr $C$DW$358, DW_AT_type(*$C$DW$T$10)
	.dwattr $C$DW$358, DW_AT_location[DW_OP_breg13 2400]

$C$DW$359	.dwtag  DW_TAG_variable
	.dwattr $C$DW$359, DW_AT_name("n0330_")
	.dwattr $C$DW$359, DW_AT_TI_symbol_name("n0330_")
	.dwattr $C$DW$359, DW_AT_type(*$C$DW$T$10)
	.dwattr $C$DW$359, DW_AT_location[DW_OP_breg13 2404]

$C$DW$360	.dwtag  DW_TAG_variable
	.dwattr $C$DW$360, DW_AT_name("n0331_")
	.dwattr $C$DW$360, DW_AT_TI_symbol_name("n0331_")
	.dwattr $C$DW$360, DW_AT_type(*$C$DW$T$10)
	.dwattr $C$DW$360, DW_AT_location[DW_OP_breg13 2408]

$C$DW$361	.dwtag  DW_TAG_variable
	.dwattr $C$DW$361, DW_AT_name("n0332_")
	.dwattr $C$DW$361, DW_AT_TI_symbol_name("n0332_")
	.dwattr $C$DW$361, DW_AT_type(*$C$DW$T$10)
	.dwattr $C$DW$361, DW_AT_location[DW_OP_breg13 2412]

$C$DW$362	.dwtag  DW_TAG_variable
	.dwattr $C$DW$362, DW_AT_name("n0333_")
	.dwattr $C$DW$362, DW_AT_TI_symbol_name("n0333_")
	.dwattr $C$DW$362, DW_AT_type(*$C$DW$T$10)
	.dwattr $C$DW$362, DW_AT_location[DW_OP_breg13 2416]

$C$DW$363	.dwtag  DW_TAG_variable
	.dwattr $C$DW$363, DW_AT_name("n0334_")
	.dwattr $C$DW$363, DW_AT_TI_symbol_name("n0334_")
	.dwattr $C$DW$363, DW_AT_type(*$C$DW$T$10)
	.dwattr $C$DW$363, DW_AT_location[DW_OP_breg13 2420]

$C$DW$364	.dwtag  DW_TAG_variable
	.dwattr $C$DW$364, DW_AT_name("n0335_")
	.dwattr $C$DW$364, DW_AT_TI_symbol_name("n0335_")
	.dwattr $C$DW$364, DW_AT_type(*$C$DW$T$10)
	.dwattr $C$DW$364, DW_AT_location[DW_OP_breg13 2424]

$C$DW$365	.dwtag  DW_TAG_variable
	.dwattr $C$DW$365, DW_AT_name("n0336_")
	.dwattr $C$DW$365, DW_AT_TI_symbol_name("n0336_")
	.dwattr $C$DW$365, DW_AT_type(*$C$DW$T$10)
	.dwattr $C$DW$365, DW_AT_location[DW_OP_breg13 2428]

$C$DW$366	.dwtag  DW_TAG_variable
	.dwattr $C$DW$366, DW_AT_name("n0337_")
	.dwattr $C$DW$366, DW_AT_TI_symbol_name("n0337_")
	.dwattr $C$DW$366, DW_AT_type(*$C$DW$T$10)
	.dwattr $C$DW$366, DW_AT_location[DW_OP_breg13 2432]

$C$DW$367	.dwtag  DW_TAG_variable
	.dwattr $C$DW$367, DW_AT_name("n0338_")
	.dwattr $C$DW$367, DW_AT_TI_symbol_name("n0338_")
	.dwattr $C$DW$367, DW_AT_type(*$C$DW$T$10)
	.dwattr $C$DW$367, DW_AT_location[DW_OP_breg13 2436]

$C$DW$368	.dwtag  DW_TAG_variable
	.dwattr $C$DW$368, DW_AT_name("n0339_")
	.dwattr $C$DW$368, DW_AT_TI_symbol_name("n0339_")
	.dwattr $C$DW$368, DW_AT_type(*$C$DW$T$10)
	.dwattr $C$DW$368, DW_AT_location[DW_OP_breg13 2440]

$C$DW$369	.dwtag  DW_TAG_variable
	.dwattr $C$DW$369, DW_AT_name("n0340_")
	.dwattr $C$DW$369, DW_AT_TI_symbol_name("n0340_")
	.dwattr $C$DW$369, DW_AT_type(*$C$DW$T$10)
	.dwattr $C$DW$369, DW_AT_location[DW_OP_breg13 2444]

$C$DW$370	.dwtag  DW_TAG_variable
	.dwattr $C$DW$370, DW_AT_name("n0341_")
	.dwattr $C$DW$370, DW_AT_TI_symbol_name("n0341_")
	.dwattr $C$DW$370, DW_AT_type(*$C$DW$T$10)
	.dwattr $C$DW$370, DW_AT_location[DW_OP_breg13 2448]

$C$DW$371	.dwtag  DW_TAG_variable
	.dwattr $C$DW$371, DW_AT_name("n0342_")
	.dwattr $C$DW$371, DW_AT_TI_symbol_name("n0342_")
	.dwattr $C$DW$371, DW_AT_type(*$C$DW$T$10)
	.dwattr $C$DW$371, DW_AT_location[DW_OP_breg13 2452]

$C$DW$372	.dwtag  DW_TAG_variable
	.dwattr $C$DW$372, DW_AT_name("n0343_")
	.dwattr $C$DW$372, DW_AT_TI_symbol_name("n0343_")
	.dwattr $C$DW$372, DW_AT_type(*$C$DW$T$10)
	.dwattr $C$DW$372, DW_AT_location[DW_OP_breg13 2456]

$C$DW$373	.dwtag  DW_TAG_variable
	.dwattr $C$DW$373, DW_AT_name("n0344_")
	.dwattr $C$DW$373, DW_AT_TI_symbol_name("n0344_")
	.dwattr $C$DW$373, DW_AT_type(*$C$DW$T$10)
	.dwattr $C$DW$373, DW_AT_location[DW_OP_breg13 2460]

$C$DW$374	.dwtag  DW_TAG_variable
	.dwattr $C$DW$374, DW_AT_name("n0345_")
	.dwattr $C$DW$374, DW_AT_TI_symbol_name("n0345_")
	.dwattr $C$DW$374, DW_AT_type(*$C$DW$T$10)
	.dwattr $C$DW$374, DW_AT_location[DW_OP_breg13 2464]

$C$DW$375	.dwtag  DW_TAG_variable
	.dwattr $C$DW$375, DW_AT_name("n0346_")
	.dwattr $C$DW$375, DW_AT_TI_symbol_name("n0346_")
	.dwattr $C$DW$375, DW_AT_type(*$C$DW$T$10)
	.dwattr $C$DW$375, DW_AT_location[DW_OP_breg13 2468]

$C$DW$376	.dwtag  DW_TAG_variable
	.dwattr $C$DW$376, DW_AT_name("n0347_")
	.dwattr $C$DW$376, DW_AT_TI_symbol_name("n0347_")
	.dwattr $C$DW$376, DW_AT_type(*$C$DW$T$10)
	.dwattr $C$DW$376, DW_AT_location[DW_OP_breg13 2472]

$C$DW$377	.dwtag  DW_TAG_variable
	.dwattr $C$DW$377, DW_AT_name("n0348_")
	.dwattr $C$DW$377, DW_AT_TI_symbol_name("n0348_")
	.dwattr $C$DW$377, DW_AT_type(*$C$DW$T$10)
	.dwattr $C$DW$377, DW_AT_location[DW_OP_breg13 2476]

$C$DW$378	.dwtag  DW_TAG_variable
	.dwattr $C$DW$378, DW_AT_name("n0349_")
	.dwattr $C$DW$378, DW_AT_TI_symbol_name("n0349_")
	.dwattr $C$DW$378, DW_AT_type(*$C$DW$T$10)
	.dwattr $C$DW$378, DW_AT_location[DW_OP_breg13 2480]

$C$DW$379	.dwtag  DW_TAG_variable
	.dwattr $C$DW$379, DW_AT_name("n0350_")
	.dwattr $C$DW$379, DW_AT_TI_symbol_name("n0350_")
	.dwattr $C$DW$379, DW_AT_type(*$C$DW$T$10)
	.dwattr $C$DW$379, DW_AT_location[DW_OP_breg13 2484]

$C$DW$380	.dwtag  DW_TAG_variable
	.dwattr $C$DW$380, DW_AT_name("n0351_")
	.dwattr $C$DW$380, DW_AT_TI_symbol_name("n0351_")
	.dwattr $C$DW$380, DW_AT_type(*$C$DW$T$10)
	.dwattr $C$DW$380, DW_AT_location[DW_OP_breg13 2488]

$C$DW$381	.dwtag  DW_TAG_variable
	.dwattr $C$DW$381, DW_AT_name("n0352_")
	.dwattr $C$DW$381, DW_AT_TI_symbol_name("n0352_")
	.dwattr $C$DW$381, DW_AT_type(*$C$DW$T$10)
	.dwattr $C$DW$381, DW_AT_location[DW_OP_breg13 2492]

$C$DW$382	.dwtag  DW_TAG_variable
	.dwattr $C$DW$382, DW_AT_name("n0353_")
	.dwattr $C$DW$382, DW_AT_TI_symbol_name("n0353_")
	.dwattr $C$DW$382, DW_AT_type(*$C$DW$T$10)
	.dwattr $C$DW$382, DW_AT_location[DW_OP_breg13 2496]

$C$DW$383	.dwtag  DW_TAG_variable
	.dwattr $C$DW$383, DW_AT_name("n0354_")
	.dwattr $C$DW$383, DW_AT_TI_symbol_name("n0354_")
	.dwattr $C$DW$383, DW_AT_type(*$C$DW$T$10)
	.dwattr $C$DW$383, DW_AT_location[DW_OP_breg13 2500]

$C$DW$384	.dwtag  DW_TAG_variable
	.dwattr $C$DW$384, DW_AT_name("n0355_")
	.dwattr $C$DW$384, DW_AT_TI_symbol_name("n0355_")
	.dwattr $C$DW$384, DW_AT_type(*$C$DW$T$10)
	.dwattr $C$DW$384, DW_AT_location[DW_OP_breg13 2504]

$C$DW$385	.dwtag  DW_TAG_variable
	.dwattr $C$DW$385, DW_AT_name("n0356_")
	.dwattr $C$DW$385, DW_AT_TI_symbol_name("n0356_")
	.dwattr $C$DW$385, DW_AT_type(*$C$DW$T$10)
	.dwattr $C$DW$385, DW_AT_location[DW_OP_breg13 2508]

$C$DW$386	.dwtag  DW_TAG_variable
	.dwattr $C$DW$386, DW_AT_name("n0357_")
	.dwattr $C$DW$386, DW_AT_TI_symbol_name("n0357_")
	.dwattr $C$DW$386, DW_AT_type(*$C$DW$T$10)
	.dwattr $C$DW$386, DW_AT_location[DW_OP_breg13 2512]

$C$DW$387	.dwtag  DW_TAG_variable
	.dwattr $C$DW$387, DW_AT_name("n0358_")
	.dwattr $C$DW$387, DW_AT_TI_symbol_name("n0358_")
	.dwattr $C$DW$387, DW_AT_type(*$C$DW$T$10)
	.dwattr $C$DW$387, DW_AT_location[DW_OP_breg13 2516]

$C$DW$388	.dwtag  DW_TAG_variable
	.dwattr $C$DW$388, DW_AT_name("n0359_")
	.dwattr $C$DW$388, DW_AT_TI_symbol_name("n0359_")
	.dwattr $C$DW$388, DW_AT_type(*$C$DW$T$10)
	.dwattr $C$DW$388, DW_AT_location[DW_OP_breg13 2520]

$C$DW$389	.dwtag  DW_TAG_variable
	.dwattr $C$DW$389, DW_AT_name("n0360_")
	.dwattr $C$DW$389, DW_AT_TI_symbol_name("n0360_")
	.dwattr $C$DW$389, DW_AT_type(*$C$DW$T$10)
	.dwattr $C$DW$389, DW_AT_location[DW_OP_breg13 2524]

$C$DW$390	.dwtag  DW_TAG_variable
	.dwattr $C$DW$390, DW_AT_name("n0361_")
	.dwattr $C$DW$390, DW_AT_TI_symbol_name("n0361_")
	.dwattr $C$DW$390, DW_AT_type(*$C$DW$T$10)
	.dwattr $C$DW$390, DW_AT_location[DW_OP_breg13 2528]

$C$DW$391	.dwtag  DW_TAG_variable
	.dwattr $C$DW$391, DW_AT_name("n0362_")
	.dwattr $C$DW$391, DW_AT_TI_symbol_name("n0362_")
	.dwattr $C$DW$391, DW_AT_type(*$C$DW$T$10)
	.dwattr $C$DW$391, DW_AT_location[DW_OP_breg13 2532]

$C$DW$392	.dwtag  DW_TAG_variable
	.dwattr $C$DW$392, DW_AT_name("n0363_")
	.dwattr $C$DW$392, DW_AT_TI_symbol_name("n0363_")
	.dwattr $C$DW$392, DW_AT_type(*$C$DW$T$10)
	.dwattr $C$DW$392, DW_AT_location[DW_OP_breg13 2536]

$C$DW$393	.dwtag  DW_TAG_variable
	.dwattr $C$DW$393, DW_AT_name("n0364_")
	.dwattr $C$DW$393, DW_AT_TI_symbol_name("n0364_")
	.dwattr $C$DW$393, DW_AT_type(*$C$DW$T$10)
	.dwattr $C$DW$393, DW_AT_location[DW_OP_breg13 2540]

$C$DW$394	.dwtag  DW_TAG_variable
	.dwattr $C$DW$394, DW_AT_name("n0365_")
	.dwattr $C$DW$394, DW_AT_TI_symbol_name("n0365_")
	.dwattr $C$DW$394, DW_AT_type(*$C$DW$T$10)
	.dwattr $C$DW$394, DW_AT_location[DW_OP_breg13 2544]

$C$DW$395	.dwtag  DW_TAG_variable
	.dwattr $C$DW$395, DW_AT_name("n0366_")
	.dwattr $C$DW$395, DW_AT_TI_symbol_name("n0366_")
	.dwattr $C$DW$395, DW_AT_type(*$C$DW$T$10)
	.dwattr $C$DW$395, DW_AT_location[DW_OP_breg13 2548]

$C$DW$396	.dwtag  DW_TAG_variable
	.dwattr $C$DW$396, DW_AT_name("n0367_")
	.dwattr $C$DW$396, DW_AT_TI_symbol_name("n0367_")
	.dwattr $C$DW$396, DW_AT_type(*$C$DW$T$10)
	.dwattr $C$DW$396, DW_AT_location[DW_OP_breg13 2552]

$C$DW$397	.dwtag  DW_TAG_variable
	.dwattr $C$DW$397, DW_AT_name("n0368_")
	.dwattr $C$DW$397, DW_AT_TI_symbol_name("n0368_")
	.dwattr $C$DW$397, DW_AT_type(*$C$DW$T$10)
	.dwattr $C$DW$397, DW_AT_location[DW_OP_breg13 2556]

$C$DW$398	.dwtag  DW_TAG_variable
	.dwattr $C$DW$398, DW_AT_name("n0369_")
	.dwattr $C$DW$398, DW_AT_TI_symbol_name("n0369_")
	.dwattr $C$DW$398, DW_AT_type(*$C$DW$T$10)
	.dwattr $C$DW$398, DW_AT_location[DW_OP_breg13 2560]

$C$DW$399	.dwtag  DW_TAG_variable
	.dwattr $C$DW$399, DW_AT_name("n0370_")
	.dwattr $C$DW$399, DW_AT_TI_symbol_name("n0370_")
	.dwattr $C$DW$399, DW_AT_type(*$C$DW$T$10)
	.dwattr $C$DW$399, DW_AT_location[DW_OP_breg13 2564]

$C$DW$400	.dwtag  DW_TAG_variable
	.dwattr $C$DW$400, DW_AT_name("n0371_")
	.dwattr $C$DW$400, DW_AT_TI_symbol_name("n0371_")
	.dwattr $C$DW$400, DW_AT_type(*$C$DW$T$10)
	.dwattr $C$DW$400, DW_AT_location[DW_OP_breg13 2568]

$C$DW$401	.dwtag  DW_TAG_variable
	.dwattr $C$DW$401, DW_AT_name("n0372_")
	.dwattr $C$DW$401, DW_AT_TI_symbol_name("n0372_")
	.dwattr $C$DW$401, DW_AT_type(*$C$DW$T$10)
	.dwattr $C$DW$401, DW_AT_location[DW_OP_breg13 2572]

$C$DW$402	.dwtag  DW_TAG_variable
	.dwattr $C$DW$402, DW_AT_name("n0373_")
	.dwattr $C$DW$402, DW_AT_TI_symbol_name("n0373_")
	.dwattr $C$DW$402, DW_AT_type(*$C$DW$T$10)
	.dwattr $C$DW$402, DW_AT_location[DW_OP_breg13 2576]

$C$DW$403	.dwtag  DW_TAG_variable
	.dwattr $C$DW$403, DW_AT_name("n0374_")
	.dwattr $C$DW$403, DW_AT_TI_symbol_name("n0374_")
	.dwattr $C$DW$403, DW_AT_type(*$C$DW$T$10)
	.dwattr $C$DW$403, DW_AT_location[DW_OP_breg13 2580]

$C$DW$404	.dwtag  DW_TAG_variable
	.dwattr $C$DW$404, DW_AT_name("n0375_")
	.dwattr $C$DW$404, DW_AT_TI_symbol_name("n0375_")
	.dwattr $C$DW$404, DW_AT_type(*$C$DW$T$10)
	.dwattr $C$DW$404, DW_AT_location[DW_OP_breg13 2584]

$C$DW$405	.dwtag  DW_TAG_variable
	.dwattr $C$DW$405, DW_AT_name("n0376_")
	.dwattr $C$DW$405, DW_AT_TI_symbol_name("n0376_")
	.dwattr $C$DW$405, DW_AT_type(*$C$DW$T$10)
	.dwattr $C$DW$405, DW_AT_location[DW_OP_breg13 2588]

$C$DW$406	.dwtag  DW_TAG_variable
	.dwattr $C$DW$406, DW_AT_name("n0377_")
	.dwattr $C$DW$406, DW_AT_TI_symbol_name("n0377_")
	.dwattr $C$DW$406, DW_AT_type(*$C$DW$T$10)
	.dwattr $C$DW$406, DW_AT_location[DW_OP_breg13 2592]

$C$DW$407	.dwtag  DW_TAG_variable
	.dwattr $C$DW$407, DW_AT_name("n0378_")
	.dwattr $C$DW$407, DW_AT_TI_symbol_name("n0378_")
	.dwattr $C$DW$407, DW_AT_type(*$C$DW$T$10)
	.dwattr $C$DW$407, DW_AT_location[DW_OP_breg13 2596]

$C$DW$408	.dwtag  DW_TAG_variable
	.dwattr $C$DW$408, DW_AT_name("n0379_")
	.dwattr $C$DW$408, DW_AT_TI_symbol_name("n0379_")
	.dwattr $C$DW$408, DW_AT_type(*$C$DW$T$10)
	.dwattr $C$DW$408, DW_AT_location[DW_OP_breg13 2600]

$C$DW$409	.dwtag  DW_TAG_variable
	.dwattr $C$DW$409, DW_AT_name("n0380_")
	.dwattr $C$DW$409, DW_AT_TI_symbol_name("n0380_")
	.dwattr $C$DW$409, DW_AT_type(*$C$DW$T$10)
	.dwattr $C$DW$409, DW_AT_location[DW_OP_breg13 2604]

$C$DW$410	.dwtag  DW_TAG_variable
	.dwattr $C$DW$410, DW_AT_name("n0381_")
	.dwattr $C$DW$410, DW_AT_TI_symbol_name("n0381_")
	.dwattr $C$DW$410, DW_AT_type(*$C$DW$T$10)
	.dwattr $C$DW$410, DW_AT_location[DW_OP_breg13 2608]

$C$DW$411	.dwtag  DW_TAG_variable
	.dwattr $C$DW$411, DW_AT_name("n0382_")
	.dwattr $C$DW$411, DW_AT_TI_symbol_name("n0382_")
	.dwattr $C$DW$411, DW_AT_type(*$C$DW$T$10)
	.dwattr $C$DW$411, DW_AT_location[DW_OP_breg13 2612]

$C$DW$412	.dwtag  DW_TAG_variable
	.dwattr $C$DW$412, DW_AT_name("n0383_")
	.dwattr $C$DW$412, DW_AT_TI_symbol_name("n0383_")
	.dwattr $C$DW$412, DW_AT_type(*$C$DW$T$10)
	.dwattr $C$DW$412, DW_AT_location[DW_OP_breg13 2616]

$C$DW$413	.dwtag  DW_TAG_variable
	.dwattr $C$DW$413, DW_AT_name("n0384_")
	.dwattr $C$DW$413, DW_AT_TI_symbol_name("n0384_")
	.dwattr $C$DW$413, DW_AT_type(*$C$DW$T$10)
	.dwattr $C$DW$413, DW_AT_location[DW_OP_breg13 2620]

$C$DW$414	.dwtag  DW_TAG_variable
	.dwattr $C$DW$414, DW_AT_name("n0385_")
	.dwattr $C$DW$414, DW_AT_TI_symbol_name("n0385_")
	.dwattr $C$DW$414, DW_AT_type(*$C$DW$T$10)
	.dwattr $C$DW$414, DW_AT_location[DW_OP_breg13 2624]

$C$DW$415	.dwtag  DW_TAG_variable
	.dwattr $C$DW$415, DW_AT_name("n0386_")
	.dwattr $C$DW$415, DW_AT_TI_symbol_name("n0386_")
	.dwattr $C$DW$415, DW_AT_type(*$C$DW$T$10)
	.dwattr $C$DW$415, DW_AT_location[DW_OP_breg13 2628]

$C$DW$416	.dwtag  DW_TAG_variable
	.dwattr $C$DW$416, DW_AT_name("n0387_")
	.dwattr $C$DW$416, DW_AT_TI_symbol_name("n0387_")
	.dwattr $C$DW$416, DW_AT_type(*$C$DW$T$10)
	.dwattr $C$DW$416, DW_AT_location[DW_OP_breg13 2632]

$C$DW$417	.dwtag  DW_TAG_variable
	.dwattr $C$DW$417, DW_AT_name("n0388_")
	.dwattr $C$DW$417, DW_AT_TI_symbol_name("n0388_")
	.dwattr $C$DW$417, DW_AT_type(*$C$DW$T$10)
	.dwattr $C$DW$417, DW_AT_location[DW_OP_breg13 2636]

$C$DW$418	.dwtag  DW_TAG_variable
	.dwattr $C$DW$418, DW_AT_name("n0389_")
	.dwattr $C$DW$418, DW_AT_TI_symbol_name("n0389_")
	.dwattr $C$DW$418, DW_AT_type(*$C$DW$T$10)
	.dwattr $C$DW$418, DW_AT_location[DW_OP_breg13 2640]

$C$DW$419	.dwtag  DW_TAG_variable
	.dwattr $C$DW$419, DW_AT_name("n0390_")
	.dwattr $C$DW$419, DW_AT_TI_symbol_name("n0390_")
	.dwattr $C$DW$419, DW_AT_type(*$C$DW$T$10)
	.dwattr $C$DW$419, DW_AT_location[DW_OP_breg13 2644]

$C$DW$420	.dwtag  DW_TAG_variable
	.dwattr $C$DW$420, DW_AT_name("n0391_")
	.dwattr $C$DW$420, DW_AT_TI_symbol_name("n0391_")
	.dwattr $C$DW$420, DW_AT_type(*$C$DW$T$10)
	.dwattr $C$DW$420, DW_AT_location[DW_OP_breg13 2648]

$C$DW$421	.dwtag  DW_TAG_variable
	.dwattr $C$DW$421, DW_AT_name("n0392_")
	.dwattr $C$DW$421, DW_AT_TI_symbol_name("n0392_")
	.dwattr $C$DW$421, DW_AT_type(*$C$DW$T$10)
	.dwattr $C$DW$421, DW_AT_location[DW_OP_breg13 2652]

$C$DW$422	.dwtag  DW_TAG_variable
	.dwattr $C$DW$422, DW_AT_name("n0393_")
	.dwattr $C$DW$422, DW_AT_TI_symbol_name("n0393_")
	.dwattr $C$DW$422, DW_AT_type(*$C$DW$T$10)
	.dwattr $C$DW$422, DW_AT_location[DW_OP_breg13 2656]

$C$DW$423	.dwtag  DW_TAG_variable
	.dwattr $C$DW$423, DW_AT_name("n0394_")
	.dwattr $C$DW$423, DW_AT_TI_symbol_name("n0394_")
	.dwattr $C$DW$423, DW_AT_type(*$C$DW$T$10)
	.dwattr $C$DW$423, DW_AT_location[DW_OP_breg13 2660]

$C$DW$424	.dwtag  DW_TAG_variable
	.dwattr $C$DW$424, DW_AT_name("n0395_")
	.dwattr $C$DW$424, DW_AT_TI_symbol_name("n0395_")
	.dwattr $C$DW$424, DW_AT_type(*$C$DW$T$10)
	.dwattr $C$DW$424, DW_AT_location[DW_OP_breg13 2664]

$C$DW$425	.dwtag  DW_TAG_variable
	.dwattr $C$DW$425, DW_AT_name("n0396_")
	.dwattr $C$DW$425, DW_AT_TI_symbol_name("n0396_")
	.dwattr $C$DW$425, DW_AT_type(*$C$DW$T$10)
	.dwattr $C$DW$425, DW_AT_location[DW_OP_breg13 2668]

$C$DW$426	.dwtag  DW_TAG_variable
	.dwattr $C$DW$426, DW_AT_name("n0397_")
	.dwattr $C$DW$426, DW_AT_TI_symbol_name("n0397_")
	.dwattr $C$DW$426, DW_AT_type(*$C$DW$T$10)
	.dwattr $C$DW$426, DW_AT_location[DW_OP_breg13 2672]

$C$DW$427	.dwtag  DW_TAG_variable
	.dwattr $C$DW$427, DW_AT_name("n0398_")
	.dwattr $C$DW$427, DW_AT_TI_symbol_name("n0398_")
	.dwattr $C$DW$427, DW_AT_type(*$C$DW$T$10)
	.dwattr $C$DW$427, DW_AT_location[DW_OP_breg13 2676]

$C$DW$428	.dwtag  DW_TAG_variable
	.dwattr $C$DW$428, DW_AT_name("n0399_")
	.dwattr $C$DW$428, DW_AT_TI_symbol_name("n0399_")
	.dwattr $C$DW$428, DW_AT_type(*$C$DW$T$10)
	.dwattr $C$DW$428, DW_AT_location[DW_OP_breg13 2680]

$C$DW$429	.dwtag  DW_TAG_variable
	.dwattr $C$DW$429, DW_AT_name("n0400_")
	.dwattr $C$DW$429, DW_AT_TI_symbol_name("n0400_")
	.dwattr $C$DW$429, DW_AT_type(*$C$DW$T$10)
	.dwattr $C$DW$429, DW_AT_location[DW_OP_breg13 2684]

$C$DW$430	.dwtag  DW_TAG_variable
	.dwattr $C$DW$430, DW_AT_name("n0401_")
	.dwattr $C$DW$430, DW_AT_TI_symbol_name("n0401_")
	.dwattr $C$DW$430, DW_AT_type(*$C$DW$T$10)
	.dwattr $C$DW$430, DW_AT_location[DW_OP_breg13 2688]

$C$DW$431	.dwtag  DW_TAG_variable
	.dwattr $C$DW$431, DW_AT_name("n0402_")
	.dwattr $C$DW$431, DW_AT_TI_symbol_name("n0402_")
	.dwattr $C$DW$431, DW_AT_type(*$C$DW$T$10)
	.dwattr $C$DW$431, DW_AT_location[DW_OP_breg13 2692]

$C$DW$432	.dwtag  DW_TAG_variable
	.dwattr $C$DW$432, DW_AT_name("n0403_")
	.dwattr $C$DW$432, DW_AT_TI_symbol_name("n0403_")
	.dwattr $C$DW$432, DW_AT_type(*$C$DW$T$10)
	.dwattr $C$DW$432, DW_AT_location[DW_OP_breg13 2696]

$C$DW$433	.dwtag  DW_TAG_variable
	.dwattr $C$DW$433, DW_AT_name("n0404_")
	.dwattr $C$DW$433, DW_AT_TI_symbol_name("n0404_")
	.dwattr $C$DW$433, DW_AT_type(*$C$DW$T$10)
	.dwattr $C$DW$433, DW_AT_location[DW_OP_breg13 2700]

$C$DW$434	.dwtag  DW_TAG_variable
	.dwattr $C$DW$434, DW_AT_name("n0405_")
	.dwattr $C$DW$434, DW_AT_TI_symbol_name("n0405_")
	.dwattr $C$DW$434, DW_AT_type(*$C$DW$T$10)
	.dwattr $C$DW$434, DW_AT_location[DW_OP_breg13 2704]

$C$DW$435	.dwtag  DW_TAG_variable
	.dwattr $C$DW$435, DW_AT_name("n0406_")
	.dwattr $C$DW$435, DW_AT_TI_symbol_name("n0406_")
	.dwattr $C$DW$435, DW_AT_type(*$C$DW$T$10)
	.dwattr $C$DW$435, DW_AT_location[DW_OP_breg13 2708]

$C$DW$436	.dwtag  DW_TAG_variable
	.dwattr $C$DW$436, DW_AT_name("n0407_")
	.dwattr $C$DW$436, DW_AT_TI_symbol_name("n0407_")
	.dwattr $C$DW$436, DW_AT_type(*$C$DW$T$10)
	.dwattr $C$DW$436, DW_AT_location[DW_OP_breg13 2712]

$C$DW$437	.dwtag  DW_TAG_variable
	.dwattr $C$DW$437, DW_AT_name("n0408_")
	.dwattr $C$DW$437, DW_AT_TI_symbol_name("n0408_")
	.dwattr $C$DW$437, DW_AT_type(*$C$DW$T$10)
	.dwattr $C$DW$437, DW_AT_location[DW_OP_breg13 2716]

$C$DW$438	.dwtag  DW_TAG_variable
	.dwattr $C$DW$438, DW_AT_name("n0409_")
	.dwattr $C$DW$438, DW_AT_TI_symbol_name("n0409_")
	.dwattr $C$DW$438, DW_AT_type(*$C$DW$T$10)
	.dwattr $C$DW$438, DW_AT_location[DW_OP_breg13 2720]

$C$DW$439	.dwtag  DW_TAG_variable
	.dwattr $C$DW$439, DW_AT_name("n0410_")
	.dwattr $C$DW$439, DW_AT_TI_symbol_name("n0410_")
	.dwattr $C$DW$439, DW_AT_type(*$C$DW$T$10)
	.dwattr $C$DW$439, DW_AT_location[DW_OP_breg13 2724]

$C$DW$440	.dwtag  DW_TAG_variable
	.dwattr $C$DW$440, DW_AT_name("n0411_")
	.dwattr $C$DW$440, DW_AT_TI_symbol_name("n0411_")
	.dwattr $C$DW$440, DW_AT_type(*$C$DW$T$10)
	.dwattr $C$DW$440, DW_AT_location[DW_OP_breg13 2728]

$C$DW$441	.dwtag  DW_TAG_variable
	.dwattr $C$DW$441, DW_AT_name("n0412_")
	.dwattr $C$DW$441, DW_AT_TI_symbol_name("n0412_")
	.dwattr $C$DW$441, DW_AT_type(*$C$DW$T$10)
	.dwattr $C$DW$441, DW_AT_location[DW_OP_breg13 2732]

$C$DW$442	.dwtag  DW_TAG_variable
	.dwattr $C$DW$442, DW_AT_name("n0413_")
	.dwattr $C$DW$442, DW_AT_TI_symbol_name("n0413_")
	.dwattr $C$DW$442, DW_AT_type(*$C$DW$T$10)
	.dwattr $C$DW$442, DW_AT_location[DW_OP_breg13 2736]

$C$DW$443	.dwtag  DW_TAG_variable
	.dwattr $C$DW$443, DW_AT_name("n0414_")
	.dwattr $C$DW$443, DW_AT_TI_symbol_name("n0414_")
	.dwattr $C$DW$443, DW_AT_type(*$C$DW$T$10)
	.dwattr $C$DW$443, DW_AT_location[DW_OP_breg13 2740]

$C$DW$444	.dwtag  DW_TAG_variable
	.dwattr $C$DW$444, DW_AT_name("n0415_")
	.dwattr $C$DW$444, DW_AT_TI_symbol_name("n0415_")
	.dwattr $C$DW$444, DW_AT_type(*$C$DW$T$10)
	.dwattr $C$DW$444, DW_AT_location[DW_OP_breg13 2744]

$C$DW$445	.dwtag  DW_TAG_variable
	.dwattr $C$DW$445, DW_AT_name("n0416_")
	.dwattr $C$DW$445, DW_AT_TI_symbol_name("n0416_")
	.dwattr $C$DW$445, DW_AT_type(*$C$DW$T$10)
	.dwattr $C$DW$445, DW_AT_location[DW_OP_breg13 2748]

$C$DW$446	.dwtag  DW_TAG_variable
	.dwattr $C$DW$446, DW_AT_name("n0417_")
	.dwattr $C$DW$446, DW_AT_TI_symbol_name("n0417_")
	.dwattr $C$DW$446, DW_AT_type(*$C$DW$T$10)
	.dwattr $C$DW$446, DW_AT_location[DW_OP_breg13 2752]

$C$DW$447	.dwtag  DW_TAG_variable
	.dwattr $C$DW$447, DW_AT_name("n0418_")
	.dwattr $C$DW$447, DW_AT_TI_symbol_name("n0418_")
	.dwattr $C$DW$447, DW_AT_type(*$C$DW$T$10)
	.dwattr $C$DW$447, DW_AT_location[DW_OP_breg13 2756]

$C$DW$448	.dwtag  DW_TAG_variable
	.dwattr $C$DW$448, DW_AT_name("n0419_")
	.dwattr $C$DW$448, DW_AT_TI_symbol_name("n0419_")
	.dwattr $C$DW$448, DW_AT_type(*$C$DW$T$10)
	.dwattr $C$DW$448, DW_AT_location[DW_OP_breg13 2760]

$C$DW$449	.dwtag  DW_TAG_variable
	.dwattr $C$DW$449, DW_AT_name("n0420_")
	.dwattr $C$DW$449, DW_AT_TI_symbol_name("n0420_")
	.dwattr $C$DW$449, DW_AT_type(*$C$DW$T$10)
	.dwattr $C$DW$449, DW_AT_location[DW_OP_breg13 2764]

$C$DW$450	.dwtag  DW_TAG_variable
	.dwattr $C$DW$450, DW_AT_name("n0421_")
	.dwattr $C$DW$450, DW_AT_TI_symbol_name("n0421_")
	.dwattr $C$DW$450, DW_AT_type(*$C$DW$T$10)
	.dwattr $C$DW$450, DW_AT_location[DW_OP_breg13 2768]

$C$DW$451	.dwtag  DW_TAG_variable
	.dwattr $C$DW$451, DW_AT_name("n0422_")
	.dwattr $C$DW$451, DW_AT_TI_symbol_name("n0422_")
	.dwattr $C$DW$451, DW_AT_type(*$C$DW$T$10)
	.dwattr $C$DW$451, DW_AT_location[DW_OP_breg13 2772]

$C$DW$452	.dwtag  DW_TAG_variable
	.dwattr $C$DW$452, DW_AT_name("n0423_")
	.dwattr $C$DW$452, DW_AT_TI_symbol_name("n0423_")
	.dwattr $C$DW$452, DW_AT_type(*$C$DW$T$10)
	.dwattr $C$DW$452, DW_AT_location[DW_OP_breg13 2776]

$C$DW$453	.dwtag  DW_TAG_variable
	.dwattr $C$DW$453, DW_AT_name("n0424_")
	.dwattr $C$DW$453, DW_AT_TI_symbol_name("n0424_")
	.dwattr $C$DW$453, DW_AT_type(*$C$DW$T$10)
	.dwattr $C$DW$453, DW_AT_location[DW_OP_breg13 2780]

$C$DW$454	.dwtag  DW_TAG_variable
	.dwattr $C$DW$454, DW_AT_name("n0425_")
	.dwattr $C$DW$454, DW_AT_TI_symbol_name("n0425_")
	.dwattr $C$DW$454, DW_AT_type(*$C$DW$T$10)
	.dwattr $C$DW$454, DW_AT_location[DW_OP_breg13 2784]

$C$DW$455	.dwtag  DW_TAG_variable
	.dwattr $C$DW$455, DW_AT_name("n0426_")
	.dwattr $C$DW$455, DW_AT_TI_symbol_name("n0426_")
	.dwattr $C$DW$455, DW_AT_type(*$C$DW$T$10)
	.dwattr $C$DW$455, DW_AT_location[DW_OP_breg13 2788]

$C$DW$456	.dwtag  DW_TAG_variable
	.dwattr $C$DW$456, DW_AT_name("n0427_")
	.dwattr $C$DW$456, DW_AT_TI_symbol_name("n0427_")
	.dwattr $C$DW$456, DW_AT_type(*$C$DW$T$10)
	.dwattr $C$DW$456, DW_AT_location[DW_OP_breg13 2792]

$C$DW$457	.dwtag  DW_TAG_variable
	.dwattr $C$DW$457, DW_AT_name("n0428_")
	.dwattr $C$DW$457, DW_AT_TI_symbol_name("n0428_")
	.dwattr $C$DW$457, DW_AT_type(*$C$DW$T$10)
	.dwattr $C$DW$457, DW_AT_location[DW_OP_breg13 2796]

$C$DW$458	.dwtag  DW_TAG_variable
	.dwattr $C$DW$458, DW_AT_name("n0429_")
	.dwattr $C$DW$458, DW_AT_TI_symbol_name("n0429_")
	.dwattr $C$DW$458, DW_AT_type(*$C$DW$T$10)
	.dwattr $C$DW$458, DW_AT_location[DW_OP_breg13 2800]

$C$DW$459	.dwtag  DW_TAG_variable
	.dwattr $C$DW$459, DW_AT_name("n0430_")
	.dwattr $C$DW$459, DW_AT_TI_symbol_name("n0430_")
	.dwattr $C$DW$459, DW_AT_type(*$C$DW$T$10)
	.dwattr $C$DW$459, DW_AT_location[DW_OP_breg13 2804]

$C$DW$460	.dwtag  DW_TAG_variable
	.dwattr $C$DW$460, DW_AT_name("n0431_")
	.dwattr $C$DW$460, DW_AT_TI_symbol_name("n0431_")
	.dwattr $C$DW$460, DW_AT_type(*$C$DW$T$10)
	.dwattr $C$DW$460, DW_AT_location[DW_OP_breg13 2808]

$C$DW$461	.dwtag  DW_TAG_variable
	.dwattr $C$DW$461, DW_AT_name("n0432_")
	.dwattr $C$DW$461, DW_AT_TI_symbol_name("n0432_")
	.dwattr $C$DW$461, DW_AT_type(*$C$DW$T$10)
	.dwattr $C$DW$461, DW_AT_location[DW_OP_breg13 2812]

$C$DW$462	.dwtag  DW_TAG_variable
	.dwattr $C$DW$462, DW_AT_name("n0433_")
	.dwattr $C$DW$462, DW_AT_TI_symbol_name("n0433_")
	.dwattr $C$DW$462, DW_AT_type(*$C$DW$T$10)
	.dwattr $C$DW$462, DW_AT_location[DW_OP_breg13 2816]

$C$DW$463	.dwtag  DW_TAG_variable
	.dwattr $C$DW$463, DW_AT_name("n0434_")
	.dwattr $C$DW$463, DW_AT_TI_symbol_name("n0434_")
	.dwattr $C$DW$463, DW_AT_type(*$C$DW$T$10)
	.dwattr $C$DW$463, DW_AT_location[DW_OP_breg13 2820]

$C$DW$464	.dwtag  DW_TAG_variable
	.dwattr $C$DW$464, DW_AT_name("n0435_")
	.dwattr $C$DW$464, DW_AT_TI_symbol_name("n0435_")
	.dwattr $C$DW$464, DW_AT_type(*$C$DW$T$10)
	.dwattr $C$DW$464, DW_AT_location[DW_OP_breg13 2824]

$C$DW$465	.dwtag  DW_TAG_variable
	.dwattr $C$DW$465, DW_AT_name("n0436_")
	.dwattr $C$DW$465, DW_AT_TI_symbol_name("n0436_")
	.dwattr $C$DW$465, DW_AT_type(*$C$DW$T$10)
	.dwattr $C$DW$465, DW_AT_location[DW_OP_breg13 2828]

$C$DW$466	.dwtag  DW_TAG_variable
	.dwattr $C$DW$466, DW_AT_name("n0437_")
	.dwattr $C$DW$466, DW_AT_TI_symbol_name("n0437_")
	.dwattr $C$DW$466, DW_AT_type(*$C$DW$T$10)
	.dwattr $C$DW$466, DW_AT_location[DW_OP_breg13 2832]

$C$DW$467	.dwtag  DW_TAG_variable
	.dwattr $C$DW$467, DW_AT_name("n0438_")
	.dwattr $C$DW$467, DW_AT_TI_symbol_name("n0438_")
	.dwattr $C$DW$467, DW_AT_type(*$C$DW$T$10)
	.dwattr $C$DW$467, DW_AT_location[DW_OP_breg13 2836]

$C$DW$468	.dwtag  DW_TAG_variable
	.dwattr $C$DW$468, DW_AT_name("n0439_")
	.dwattr $C$DW$468, DW_AT_TI_symbol_name("n0439_")
	.dwattr $C$DW$468, DW_AT_type(*$C$DW$T$10)
	.dwattr $C$DW$468, DW_AT_location[DW_OP_breg13 2840]

$C$DW$469	.dwtag  DW_TAG_variable
	.dwattr $C$DW$469, DW_AT_name("n0440_")
	.dwattr $C$DW$469, DW_AT_TI_symbol_name("n0440_")
	.dwattr $C$DW$469, DW_AT_type(*$C$DW$T$10)
	.dwattr $C$DW$469, DW_AT_location[DW_OP_breg13 2844]

$C$DW$470	.dwtag  DW_TAG_variable
	.dwattr $C$DW$470, DW_AT_name("n0441_")
	.dwattr $C$DW$470, DW_AT_TI_symbol_name("n0441_")
	.dwattr $C$DW$470, DW_AT_type(*$C$DW$T$10)
	.dwattr $C$DW$470, DW_AT_location[DW_OP_breg13 2848]

$C$DW$471	.dwtag  DW_TAG_variable
	.dwattr $C$DW$471, DW_AT_name("n0442_")
	.dwattr $C$DW$471, DW_AT_TI_symbol_name("n0442_")
	.dwattr $C$DW$471, DW_AT_type(*$C$DW$T$10)
	.dwattr $C$DW$471, DW_AT_location[DW_OP_breg13 2852]

$C$DW$472	.dwtag  DW_TAG_variable
	.dwattr $C$DW$472, DW_AT_name("n0443_")
	.dwattr $C$DW$472, DW_AT_TI_symbol_name("n0443_")
	.dwattr $C$DW$472, DW_AT_type(*$C$DW$T$10)
	.dwattr $C$DW$472, DW_AT_location[DW_OP_breg13 2856]

$C$DW$473	.dwtag  DW_TAG_variable
	.dwattr $C$DW$473, DW_AT_name("n0444_")
	.dwattr $C$DW$473, DW_AT_TI_symbol_name("n0444_")
	.dwattr $C$DW$473, DW_AT_type(*$C$DW$T$10)
	.dwattr $C$DW$473, DW_AT_location[DW_OP_breg13 2860]

$C$DW$474	.dwtag  DW_TAG_variable
	.dwattr $C$DW$474, DW_AT_name("n0445_")
	.dwattr $C$DW$474, DW_AT_TI_symbol_name("n0445_")
	.dwattr $C$DW$474, DW_AT_type(*$C$DW$T$10)
	.dwattr $C$DW$474, DW_AT_location[DW_OP_breg13 2864]

$C$DW$475	.dwtag  DW_TAG_variable
	.dwattr $C$DW$475, DW_AT_name("n0446_")
	.dwattr $C$DW$475, DW_AT_TI_symbol_name("n0446_")
	.dwattr $C$DW$475, DW_AT_type(*$C$DW$T$10)
	.dwattr $C$DW$475, DW_AT_location[DW_OP_breg13 2868]

$C$DW$476	.dwtag  DW_TAG_variable
	.dwattr $C$DW$476, DW_AT_name("n0447_")
	.dwattr $C$DW$476, DW_AT_TI_symbol_name("n0447_")
	.dwattr $C$DW$476, DW_AT_type(*$C$DW$T$10)
	.dwattr $C$DW$476, DW_AT_location[DW_OP_breg13 2872]

$C$DW$477	.dwtag  DW_TAG_variable
	.dwattr $C$DW$477, DW_AT_name("n0448_")
	.dwattr $C$DW$477, DW_AT_TI_symbol_name("n0448_")
	.dwattr $C$DW$477, DW_AT_type(*$C$DW$T$10)
	.dwattr $C$DW$477, DW_AT_location[DW_OP_breg13 2876]

$C$DW$478	.dwtag  DW_TAG_variable
	.dwattr $C$DW$478, DW_AT_name("n0449_")
	.dwattr $C$DW$478, DW_AT_TI_symbol_name("n0449_")
	.dwattr $C$DW$478, DW_AT_type(*$C$DW$T$10)
	.dwattr $C$DW$478, DW_AT_location[DW_OP_breg13 2880]

$C$DW$479	.dwtag  DW_TAG_variable
	.dwattr $C$DW$479, DW_AT_name("n0450_")
	.dwattr $C$DW$479, DW_AT_TI_symbol_name("n0450_")
	.dwattr $C$DW$479, DW_AT_type(*$C$DW$T$10)
	.dwattr $C$DW$479, DW_AT_location[DW_OP_breg13 2884]

$C$DW$480	.dwtag  DW_TAG_variable
	.dwattr $C$DW$480, DW_AT_name("n0451_")
	.dwattr $C$DW$480, DW_AT_TI_symbol_name("n0451_")
	.dwattr $C$DW$480, DW_AT_type(*$C$DW$T$10)
	.dwattr $C$DW$480, DW_AT_location[DW_OP_breg13 2888]

$C$DW$481	.dwtag  DW_TAG_variable
	.dwattr $C$DW$481, DW_AT_name("n0452_")
	.dwattr $C$DW$481, DW_AT_TI_symbol_name("n0452_")
	.dwattr $C$DW$481, DW_AT_type(*$C$DW$T$10)
	.dwattr $C$DW$481, DW_AT_location[DW_OP_breg13 2892]

$C$DW$482	.dwtag  DW_TAG_variable
	.dwattr $C$DW$482, DW_AT_name("n0453_")
	.dwattr $C$DW$482, DW_AT_TI_symbol_name("n0453_")
	.dwattr $C$DW$482, DW_AT_type(*$C$DW$T$10)
	.dwattr $C$DW$482, DW_AT_location[DW_OP_breg13 2896]

$C$DW$483	.dwtag  DW_TAG_variable
	.dwattr $C$DW$483, DW_AT_name("n0454_")
	.dwattr $C$DW$483, DW_AT_TI_symbol_name("n0454_")
	.dwattr $C$DW$483, DW_AT_type(*$C$DW$T$10)
	.dwattr $C$DW$483, DW_AT_location[DW_OP_breg13 2900]

$C$DW$484	.dwtag  DW_TAG_variable
	.dwattr $C$DW$484, DW_AT_name("n0455_")
	.dwattr $C$DW$484, DW_AT_TI_symbol_name("n0455_")
	.dwattr $C$DW$484, DW_AT_type(*$C$DW$T$10)
	.dwattr $C$DW$484, DW_AT_location[DW_OP_breg13 2904]

$C$DW$485	.dwtag  DW_TAG_variable
	.dwattr $C$DW$485, DW_AT_name("n0456_")
	.dwattr $C$DW$485, DW_AT_TI_symbol_name("n0456_")
	.dwattr $C$DW$485, DW_AT_type(*$C$DW$T$10)
	.dwattr $C$DW$485, DW_AT_location[DW_OP_breg13 2908]

$C$DW$486	.dwtag  DW_TAG_variable
	.dwattr $C$DW$486, DW_AT_name("n0457_")
	.dwattr $C$DW$486, DW_AT_TI_symbol_name("n0457_")
	.dwattr $C$DW$486, DW_AT_type(*$C$DW$T$10)
	.dwattr $C$DW$486, DW_AT_location[DW_OP_breg13 2912]

$C$DW$487	.dwtag  DW_TAG_variable
	.dwattr $C$DW$487, DW_AT_name("n0458_")
	.dwattr $C$DW$487, DW_AT_TI_symbol_name("n0458_")
	.dwattr $C$DW$487, DW_AT_type(*$C$DW$T$10)
	.dwattr $C$DW$487, DW_AT_location[DW_OP_breg13 2916]

$C$DW$488	.dwtag  DW_TAG_variable
	.dwattr $C$DW$488, DW_AT_name("n0459_")
	.dwattr $C$DW$488, DW_AT_TI_symbol_name("n0459_")
	.dwattr $C$DW$488, DW_AT_type(*$C$DW$T$10)
	.dwattr $C$DW$488, DW_AT_location[DW_OP_breg13 2920]

$C$DW$489	.dwtag  DW_TAG_variable
	.dwattr $C$DW$489, DW_AT_name("n0460_")
	.dwattr $C$DW$489, DW_AT_TI_symbol_name("n0460_")
	.dwattr $C$DW$489, DW_AT_type(*$C$DW$T$10)
	.dwattr $C$DW$489, DW_AT_location[DW_OP_breg13 2924]

$C$DW$490	.dwtag  DW_TAG_variable
	.dwattr $C$DW$490, DW_AT_name("n0461_")
	.dwattr $C$DW$490, DW_AT_TI_symbol_name("n0461_")
	.dwattr $C$DW$490, DW_AT_type(*$C$DW$T$10)
	.dwattr $C$DW$490, DW_AT_location[DW_OP_breg13 2928]

$C$DW$491	.dwtag  DW_TAG_variable
	.dwattr $C$DW$491, DW_AT_name("n0462_")
	.dwattr $C$DW$491, DW_AT_TI_symbol_name("n0462_")
	.dwattr $C$DW$491, DW_AT_type(*$C$DW$T$10)
	.dwattr $C$DW$491, DW_AT_location[DW_OP_breg13 2932]

$C$DW$492	.dwtag  DW_TAG_variable
	.dwattr $C$DW$492, DW_AT_name("n0463_")
	.dwattr $C$DW$492, DW_AT_TI_symbol_name("n0463_")
	.dwattr $C$DW$492, DW_AT_type(*$C$DW$T$10)
	.dwattr $C$DW$492, DW_AT_location[DW_OP_breg13 2936]

$C$DW$493	.dwtag  DW_TAG_variable
	.dwattr $C$DW$493, DW_AT_name("n0464_")
	.dwattr $C$DW$493, DW_AT_TI_symbol_name("n0464_")
	.dwattr $C$DW$493, DW_AT_type(*$C$DW$T$10)
	.dwattr $C$DW$493, DW_AT_location[DW_OP_breg13 2940]

$C$DW$494	.dwtag  DW_TAG_variable
	.dwattr $C$DW$494, DW_AT_name("n0465_")
	.dwattr $C$DW$494, DW_AT_TI_symbol_name("n0465_")
	.dwattr $C$DW$494, DW_AT_type(*$C$DW$T$10)
	.dwattr $C$DW$494, DW_AT_location[DW_OP_breg13 2944]

$C$DW$495	.dwtag  DW_TAG_variable
	.dwattr $C$DW$495, DW_AT_name("n0466_")
	.dwattr $C$DW$495, DW_AT_TI_symbol_name("n0466_")
	.dwattr $C$DW$495, DW_AT_type(*$C$DW$T$10)
	.dwattr $C$DW$495, DW_AT_location[DW_OP_breg13 2948]

$C$DW$496	.dwtag  DW_TAG_variable
	.dwattr $C$DW$496, DW_AT_name("n0467_")
	.dwattr $C$DW$496, DW_AT_TI_symbol_name("n0467_")
	.dwattr $C$DW$496, DW_AT_type(*$C$DW$T$10)
	.dwattr $C$DW$496, DW_AT_location[DW_OP_breg13 2952]

$C$DW$497	.dwtag  DW_TAG_variable
	.dwattr $C$DW$497, DW_AT_name("n0468_")
	.dwattr $C$DW$497, DW_AT_TI_symbol_name("n0468_")
	.dwattr $C$DW$497, DW_AT_type(*$C$DW$T$10)
	.dwattr $C$DW$497, DW_AT_location[DW_OP_breg13 2956]

$C$DW$498	.dwtag  DW_TAG_variable
	.dwattr $C$DW$498, DW_AT_name("n0469_")
	.dwattr $C$DW$498, DW_AT_TI_symbol_name("n0469_")
	.dwattr $C$DW$498, DW_AT_type(*$C$DW$T$10)
	.dwattr $C$DW$498, DW_AT_location[DW_OP_breg13 2960]

$C$DW$499	.dwtag  DW_TAG_variable
	.dwattr $C$DW$499, DW_AT_name("n0470_")
	.dwattr $C$DW$499, DW_AT_TI_symbol_name("n0470_")
	.dwattr $C$DW$499, DW_AT_type(*$C$DW$T$10)
	.dwattr $C$DW$499, DW_AT_location[DW_OP_breg13 2964]

$C$DW$500	.dwtag  DW_TAG_variable
	.dwattr $C$DW$500, DW_AT_name("n0471_")
	.dwattr $C$DW$500, DW_AT_TI_symbol_name("n0471_")
	.dwattr $C$DW$500, DW_AT_type(*$C$DW$T$10)
	.dwattr $C$DW$500, DW_AT_location[DW_OP_breg13 2968]

$C$DW$501	.dwtag  DW_TAG_variable
	.dwattr $C$DW$501, DW_AT_name("n0472_")
	.dwattr $C$DW$501, DW_AT_TI_symbol_name("n0472_")
	.dwattr $C$DW$501, DW_AT_type(*$C$DW$T$10)
	.dwattr $C$DW$501, DW_AT_location[DW_OP_breg13 2972]

$C$DW$502	.dwtag  DW_TAG_variable
	.dwattr $C$DW$502, DW_AT_name("n0473_")
	.dwattr $C$DW$502, DW_AT_TI_symbol_name("n0473_")
	.dwattr $C$DW$502, DW_AT_type(*$C$DW$T$10)
	.dwattr $C$DW$502, DW_AT_location[DW_OP_breg13 2976]

$C$DW$503	.dwtag  DW_TAG_variable
	.dwattr $C$DW$503, DW_AT_name("n0474_")
	.dwattr $C$DW$503, DW_AT_TI_symbol_name("n0474_")
	.dwattr $C$DW$503, DW_AT_type(*$C$DW$T$10)
	.dwattr $C$DW$503, DW_AT_location[DW_OP_breg13 2980]

$C$DW$504	.dwtag  DW_TAG_variable
	.dwattr $C$DW$504, DW_AT_name("n0475_")
	.dwattr $C$DW$504, DW_AT_TI_symbol_name("n0475_")
	.dwattr $C$DW$504, DW_AT_type(*$C$DW$T$10)
	.dwattr $C$DW$504, DW_AT_location[DW_OP_breg13 2984]

$C$DW$505	.dwtag  DW_TAG_variable
	.dwattr $C$DW$505, DW_AT_name("n0476_")
	.dwattr $C$DW$505, DW_AT_TI_symbol_name("n0476_")
	.dwattr $C$DW$505, DW_AT_type(*$C$DW$T$10)
	.dwattr $C$DW$505, DW_AT_location[DW_OP_breg13 2988]

$C$DW$506	.dwtag  DW_TAG_variable
	.dwattr $C$DW$506, DW_AT_name("n0477_")
	.dwattr $C$DW$506, DW_AT_TI_symbol_name("n0477_")
	.dwattr $C$DW$506, DW_AT_type(*$C$DW$T$10)
	.dwattr $C$DW$506, DW_AT_location[DW_OP_breg13 2992]

$C$DW$507	.dwtag  DW_TAG_variable
	.dwattr $C$DW$507, DW_AT_name("n0478_")
	.dwattr $C$DW$507, DW_AT_TI_symbol_name("n0478_")
	.dwattr $C$DW$507, DW_AT_type(*$C$DW$T$10)
	.dwattr $C$DW$507, DW_AT_location[DW_OP_breg13 2996]

$C$DW$508	.dwtag  DW_TAG_variable
	.dwattr $C$DW$508, DW_AT_name("n0479_")
	.dwattr $C$DW$508, DW_AT_TI_symbol_name("n0479_")
	.dwattr $C$DW$508, DW_AT_type(*$C$DW$T$10)
	.dwattr $C$DW$508, DW_AT_location[DW_OP_breg13 3000]

$C$DW$509	.dwtag  DW_TAG_variable
	.dwattr $C$DW$509, DW_AT_name("n0480_")
	.dwattr $C$DW$509, DW_AT_TI_symbol_name("n0480_")
	.dwattr $C$DW$509, DW_AT_type(*$C$DW$T$10)
	.dwattr $C$DW$509, DW_AT_location[DW_OP_breg13 3004]

$C$DW$510	.dwtag  DW_TAG_variable
	.dwattr $C$DW$510, DW_AT_name("n0481_")
	.dwattr $C$DW$510, DW_AT_TI_symbol_name("n0481_")
	.dwattr $C$DW$510, DW_AT_type(*$C$DW$T$10)
	.dwattr $C$DW$510, DW_AT_location[DW_OP_breg13 3008]

$C$DW$511	.dwtag  DW_TAG_variable
	.dwattr $C$DW$511, DW_AT_name("n0482_")
	.dwattr $C$DW$511, DW_AT_TI_symbol_name("n0482_")
	.dwattr $C$DW$511, DW_AT_type(*$C$DW$T$10)
	.dwattr $C$DW$511, DW_AT_location[DW_OP_breg13 3012]

$C$DW$512	.dwtag  DW_TAG_variable
	.dwattr $C$DW$512, DW_AT_name("n0483_")
	.dwattr $C$DW$512, DW_AT_TI_symbol_name("n0483_")
	.dwattr $C$DW$512, DW_AT_type(*$C$DW$T$10)
	.dwattr $C$DW$512, DW_AT_location[DW_OP_breg13 3016]

$C$DW$513	.dwtag  DW_TAG_variable
	.dwattr $C$DW$513, DW_AT_name("n0484_")
	.dwattr $C$DW$513, DW_AT_TI_symbol_name("n0484_")
	.dwattr $C$DW$513, DW_AT_type(*$C$DW$T$10)
	.dwattr $C$DW$513, DW_AT_location[DW_OP_breg13 3020]

$C$DW$514	.dwtag  DW_TAG_variable
	.dwattr $C$DW$514, DW_AT_name("n0485_")
	.dwattr $C$DW$514, DW_AT_TI_symbol_name("n0485_")
	.dwattr $C$DW$514, DW_AT_type(*$C$DW$T$10)
	.dwattr $C$DW$514, DW_AT_location[DW_OP_breg13 3024]

$C$DW$515	.dwtag  DW_TAG_variable
	.dwattr $C$DW$515, DW_AT_name("n0486_")
	.dwattr $C$DW$515, DW_AT_TI_symbol_name("n0486_")
	.dwattr $C$DW$515, DW_AT_type(*$C$DW$T$10)
	.dwattr $C$DW$515, DW_AT_location[DW_OP_breg13 3028]

$C$DW$516	.dwtag  DW_TAG_variable
	.dwattr $C$DW$516, DW_AT_name("n0487_")
	.dwattr $C$DW$516, DW_AT_TI_symbol_name("n0487_")
	.dwattr $C$DW$516, DW_AT_type(*$C$DW$T$10)
	.dwattr $C$DW$516, DW_AT_location[DW_OP_breg13 3032]

$C$DW$517	.dwtag  DW_TAG_variable
	.dwattr $C$DW$517, DW_AT_name("n0488_")
	.dwattr $C$DW$517, DW_AT_TI_symbol_name("n0488_")
	.dwattr $C$DW$517, DW_AT_type(*$C$DW$T$10)
	.dwattr $C$DW$517, DW_AT_location[DW_OP_breg13 3036]

$C$DW$518	.dwtag  DW_TAG_variable
	.dwattr $C$DW$518, DW_AT_name("n0489_")
	.dwattr $C$DW$518, DW_AT_TI_symbol_name("n0489_")
	.dwattr $C$DW$518, DW_AT_type(*$C$DW$T$10)
	.dwattr $C$DW$518, DW_AT_location[DW_OP_breg13 3040]

$C$DW$519	.dwtag  DW_TAG_variable
	.dwattr $C$DW$519, DW_AT_name("n0490_")
	.dwattr $C$DW$519, DW_AT_TI_symbol_name("n0490_")
	.dwattr $C$DW$519, DW_AT_type(*$C$DW$T$10)
	.dwattr $C$DW$519, DW_AT_location[DW_OP_breg13 3044]

$C$DW$520	.dwtag  DW_TAG_variable
	.dwattr $C$DW$520, DW_AT_name("n0491_")
	.dwattr $C$DW$520, DW_AT_TI_symbol_name("n0491_")
	.dwattr $C$DW$520, DW_AT_type(*$C$DW$T$10)
	.dwattr $C$DW$520, DW_AT_location[DW_OP_breg13 3048]

$C$DW$521	.dwtag  DW_TAG_variable
	.dwattr $C$DW$521, DW_AT_name("n0492_")
	.dwattr $C$DW$521, DW_AT_TI_symbol_name("n0492_")
	.dwattr $C$DW$521, DW_AT_type(*$C$DW$T$10)
	.dwattr $C$DW$521, DW_AT_location[DW_OP_breg13 3052]

$C$DW$522	.dwtag  DW_TAG_variable
	.dwattr $C$DW$522, DW_AT_name("n0493_")
	.dwattr $C$DW$522, DW_AT_TI_symbol_name("n0493_")
	.dwattr $C$DW$522, DW_AT_type(*$C$DW$T$10)
	.dwattr $C$DW$522, DW_AT_location[DW_OP_breg13 3056]

$C$DW$523	.dwtag  DW_TAG_variable
	.dwattr $C$DW$523, DW_AT_name("n0494_")
	.dwattr $C$DW$523, DW_AT_TI_symbol_name("n0494_")
	.dwattr $C$DW$523, DW_AT_type(*$C$DW$T$10)
	.dwattr $C$DW$523, DW_AT_location[DW_OP_breg13 3060]

$C$DW$524	.dwtag  DW_TAG_variable
	.dwattr $C$DW$524, DW_AT_name("n0495_")
	.dwattr $C$DW$524, DW_AT_TI_symbol_name("n0495_")
	.dwattr $C$DW$524, DW_AT_type(*$C$DW$T$10)
	.dwattr $C$DW$524, DW_AT_location[DW_OP_breg13 3064]

$C$DW$525	.dwtag  DW_TAG_variable
	.dwattr $C$DW$525, DW_AT_name("n0496_")
	.dwattr $C$DW$525, DW_AT_TI_symbol_name("n0496_")
	.dwattr $C$DW$525, DW_AT_type(*$C$DW$T$10)
	.dwattr $C$DW$525, DW_AT_location[DW_OP_breg13 3068]

$C$DW$526	.dwtag  DW_TAG_variable
	.dwattr $C$DW$526, DW_AT_name("n0497_")
	.dwattr $C$DW$526, DW_AT_TI_symbol_name("n0497_")
	.dwattr $C$DW$526, DW_AT_type(*$C$DW$T$10)
	.dwattr $C$DW$526, DW_AT_location[DW_OP_breg13 3072]

$C$DW$527	.dwtag  DW_TAG_variable
	.dwattr $C$DW$527, DW_AT_name("n0498_")
	.dwattr $C$DW$527, DW_AT_TI_symbol_name("n0498_")
	.dwattr $C$DW$527, DW_AT_type(*$C$DW$T$10)
	.dwattr $C$DW$527, DW_AT_location[DW_OP_breg13 3076]

$C$DW$528	.dwtag  DW_TAG_variable
	.dwattr $C$DW$528, DW_AT_name("n0499_")
	.dwattr $C$DW$528, DW_AT_TI_symbol_name("n0499_")
	.dwattr $C$DW$528, DW_AT_type(*$C$DW$T$10)
	.dwattr $C$DW$528, DW_AT_location[DW_OP_breg13 3080]

$C$DW$529	.dwtag  DW_TAG_variable
	.dwattr $C$DW$529, DW_AT_name("n0500_")
	.dwattr $C$DW$529, DW_AT_TI_symbol_name("n0500_")
	.dwattr $C$DW$529, DW_AT_type(*$C$DW$T$10)
	.dwattr $C$DW$529, DW_AT_location[DW_OP_breg13 3084]

$C$DW$530	.dwtag  DW_TAG_variable
	.dwattr $C$DW$530, DW_AT_name("n0501_")
	.dwattr $C$DW$530, DW_AT_TI_symbol_name("n0501_")
	.dwattr $C$DW$530, DW_AT_type(*$C$DW$T$10)
	.dwattr $C$DW$530, DW_AT_location[DW_OP_breg13 3088]

$C$DW$531	.dwtag  DW_TAG_variable
	.dwattr $C$DW$531, DW_AT_name("n0502_")
	.dwattr $C$DW$531, DW_AT_TI_symbol_name("n0502_")
	.dwattr $C$DW$531, DW_AT_type(*$C$DW$T$10)
	.dwattr $C$DW$531, DW_AT_location[DW_OP_breg13 3092]

$C$DW$532	.dwtag  DW_TAG_variable
	.dwattr $C$DW$532, DW_AT_name("n0503_")
	.dwattr $C$DW$532, DW_AT_TI_symbol_name("n0503_")
	.dwattr $C$DW$532, DW_AT_type(*$C$DW$T$10)
	.dwattr $C$DW$532, DW_AT_location[DW_OP_breg13 3096]

$C$DW$533	.dwtag  DW_TAG_variable
	.dwattr $C$DW$533, DW_AT_name("n0504_")
	.dwattr $C$DW$533, DW_AT_TI_symbol_name("n0504_")
	.dwattr $C$DW$533, DW_AT_type(*$C$DW$T$10)
	.dwattr $C$DW$533, DW_AT_location[DW_OP_breg13 3100]

$C$DW$534	.dwtag  DW_TAG_variable
	.dwattr $C$DW$534, DW_AT_name("n0505_")
	.dwattr $C$DW$534, DW_AT_TI_symbol_name("n0505_")
	.dwattr $C$DW$534, DW_AT_type(*$C$DW$T$10)
	.dwattr $C$DW$534, DW_AT_location[DW_OP_breg13 3104]

$C$DW$535	.dwtag  DW_TAG_variable
	.dwattr $C$DW$535, DW_AT_name("n0506_")
	.dwattr $C$DW$535, DW_AT_TI_symbol_name("n0506_")
	.dwattr $C$DW$535, DW_AT_type(*$C$DW$T$10)
	.dwattr $C$DW$535, DW_AT_location[DW_OP_breg13 3108]

$C$DW$536	.dwtag  DW_TAG_variable
	.dwattr $C$DW$536, DW_AT_name("n0507_")
	.dwattr $C$DW$536, DW_AT_TI_symbol_name("n0507_")
	.dwattr $C$DW$536, DW_AT_type(*$C$DW$T$10)
	.dwattr $C$DW$536, DW_AT_location[DW_OP_breg13 3112]

$C$DW$537	.dwtag  DW_TAG_variable
	.dwattr $C$DW$537, DW_AT_name("n0508_")
	.dwattr $C$DW$537, DW_AT_TI_symbol_name("n0508_")
	.dwattr $C$DW$537, DW_AT_type(*$C$DW$T$10)
	.dwattr $C$DW$537, DW_AT_location[DW_OP_breg13 3116]

$C$DW$538	.dwtag  DW_TAG_variable
	.dwattr $C$DW$538, DW_AT_name("n0509_")
	.dwattr $C$DW$538, DW_AT_TI_symbol_name("n0509_")
	.dwattr $C$DW$538, DW_AT_type(*$C$DW$T$10)
	.dwattr $C$DW$538, DW_AT_location[DW_OP_breg13 3120]

$C$DW$539	.dwtag  DW_TAG_variable
	.dwattr $C$DW$539, DW_AT_name("n0510_")
	.dwattr $C$DW$539, DW_AT_TI_symbol_name("n0510_")
	.dwattr $C$DW$539, DW_AT_type(*$C$DW$T$10)
	.dwattr $C$DW$539, DW_AT_location[DW_OP_breg13 3124]

$C$DW$540	.dwtag  DW_TAG_variable
	.dwattr $C$DW$540, DW_AT_name("n0511_")
	.dwattr $C$DW$540, DW_AT_TI_symbol_name("n0511_")
	.dwattr $C$DW$540, DW_AT_type(*$C$DW$T$10)
	.dwattr $C$DW$540, DW_AT_location[DW_OP_breg13 3128]

$C$DW$541	.dwtag  DW_TAG_variable
	.dwattr $C$DW$541, DW_AT_name("n0512_")
	.dwattr $C$DW$541, DW_AT_TI_symbol_name("n0512_")
	.dwattr $C$DW$541, DW_AT_type(*$C$DW$T$10)
	.dwattr $C$DW$541, DW_AT_location[DW_OP_breg13 3132]

$C$DW$542	.dwtag  DW_TAG_variable
	.dwattr $C$DW$542, DW_AT_name("n0513_")
	.dwattr $C$DW$542, DW_AT_TI_symbol_name("n0513_")
	.dwattr $C$DW$542, DW_AT_type(*$C$DW$T$10)
	.dwattr $C$DW$542, DW_AT_location[DW_OP_breg13 3136]

$C$DW$543	.dwtag  DW_TAG_variable
	.dwattr $C$DW$543, DW_AT_name("n0514_")
	.dwattr $C$DW$543, DW_AT_TI_symbol_name("n0514_")
	.dwattr $C$DW$543, DW_AT_type(*$C$DW$T$10)
	.dwattr $C$DW$543, DW_AT_location[DW_OP_breg13 3140]

$C$DW$544	.dwtag  DW_TAG_variable
	.dwattr $C$DW$544, DW_AT_name("n0515_")
	.dwattr $C$DW$544, DW_AT_TI_symbol_name("n0515_")
	.dwattr $C$DW$544, DW_AT_type(*$C$DW$T$10)
	.dwattr $C$DW$544, DW_AT_location[DW_OP_breg13 3144]

$C$DW$545	.dwtag  DW_TAG_variable
	.dwattr $C$DW$545, DW_AT_name("n0516_")
	.dwattr $C$DW$545, DW_AT_TI_symbol_name("n0516_")
	.dwattr $C$DW$545, DW_AT_type(*$C$DW$T$10)
	.dwattr $C$DW$545, DW_AT_location[DW_OP_breg13 3148]

$C$DW$546	.dwtag  DW_TAG_variable
	.dwattr $C$DW$546, DW_AT_name("n0517_")
	.dwattr $C$DW$546, DW_AT_TI_symbol_name("n0517_")
	.dwattr $C$DW$546, DW_AT_type(*$C$DW$T$10)
	.dwattr $C$DW$546, DW_AT_location[DW_OP_breg13 3152]

$C$DW$547	.dwtag  DW_TAG_variable
	.dwattr $C$DW$547, DW_AT_name("n0518_")
	.dwattr $C$DW$547, DW_AT_TI_symbol_name("n0518_")
	.dwattr $C$DW$547, DW_AT_type(*$C$DW$T$10)
	.dwattr $C$DW$547, DW_AT_location[DW_OP_breg13 3156]

$C$DW$548	.dwtag  DW_TAG_variable
	.dwattr $C$DW$548, DW_AT_name("n0519_")
	.dwattr $C$DW$548, DW_AT_TI_symbol_name("n0519_")
	.dwattr $C$DW$548, DW_AT_type(*$C$DW$T$10)
	.dwattr $C$DW$548, DW_AT_location[DW_OP_breg13 3160]

$C$DW$549	.dwtag  DW_TAG_variable
	.dwattr $C$DW$549, DW_AT_name("n0520_")
	.dwattr $C$DW$549, DW_AT_TI_symbol_name("n0520_")
	.dwattr $C$DW$549, DW_AT_type(*$C$DW$T$10)
	.dwattr $C$DW$549, DW_AT_location[DW_OP_breg13 3164]

$C$DW$550	.dwtag  DW_TAG_variable
	.dwattr $C$DW$550, DW_AT_name("n0521_")
	.dwattr $C$DW$550, DW_AT_TI_symbol_name("n0521_")
	.dwattr $C$DW$550, DW_AT_type(*$C$DW$T$10)
	.dwattr $C$DW$550, DW_AT_location[DW_OP_breg13 3168]

$C$DW$551	.dwtag  DW_TAG_variable
	.dwattr $C$DW$551, DW_AT_name("n0522_")
	.dwattr $C$DW$551, DW_AT_TI_symbol_name("n0522_")
	.dwattr $C$DW$551, DW_AT_type(*$C$DW$T$10)
	.dwattr $C$DW$551, DW_AT_location[DW_OP_breg13 3172]

$C$DW$552	.dwtag  DW_TAG_variable
	.dwattr $C$DW$552, DW_AT_name("n0523_")
	.dwattr $C$DW$552, DW_AT_TI_symbol_name("n0523_")
	.dwattr $C$DW$552, DW_AT_type(*$C$DW$T$10)
	.dwattr $C$DW$552, DW_AT_location[DW_OP_breg13 3176]

$C$DW$553	.dwtag  DW_TAG_variable
	.dwattr $C$DW$553, DW_AT_name("n0524_")
	.dwattr $C$DW$553, DW_AT_TI_symbol_name("n0524_")
	.dwattr $C$DW$553, DW_AT_type(*$C$DW$T$10)
	.dwattr $C$DW$553, DW_AT_location[DW_OP_breg13 3180]

$C$DW$554	.dwtag  DW_TAG_variable
	.dwattr $C$DW$554, DW_AT_name("n0525_")
	.dwattr $C$DW$554, DW_AT_TI_symbol_name("n0525_")
	.dwattr $C$DW$554, DW_AT_type(*$C$DW$T$10)
	.dwattr $C$DW$554, DW_AT_location[DW_OP_breg13 3184]

$C$DW$555	.dwtag  DW_TAG_variable
	.dwattr $C$DW$555, DW_AT_name("n0526_")
	.dwattr $C$DW$555, DW_AT_TI_symbol_name("n0526_")
	.dwattr $C$DW$555, DW_AT_type(*$C$DW$T$10)
	.dwattr $C$DW$555, DW_AT_location[DW_OP_breg13 3188]

$C$DW$556	.dwtag  DW_TAG_variable
	.dwattr $C$DW$556, DW_AT_name("n0527_")
	.dwattr $C$DW$556, DW_AT_TI_symbol_name("n0527_")
	.dwattr $C$DW$556, DW_AT_type(*$C$DW$T$10)
	.dwattr $C$DW$556, DW_AT_location[DW_OP_breg13 3192]

$C$DW$557	.dwtag  DW_TAG_variable
	.dwattr $C$DW$557, DW_AT_name("n0528_")
	.dwattr $C$DW$557, DW_AT_TI_symbol_name("n0528_")
	.dwattr $C$DW$557, DW_AT_type(*$C$DW$T$10)
	.dwattr $C$DW$557, DW_AT_location[DW_OP_breg13 3196]

$C$DW$558	.dwtag  DW_TAG_variable
	.dwattr $C$DW$558, DW_AT_name("n0529_")
	.dwattr $C$DW$558, DW_AT_TI_symbol_name("n0529_")
	.dwattr $C$DW$558, DW_AT_type(*$C$DW$T$10)
	.dwattr $C$DW$558, DW_AT_location[DW_OP_breg13 3200]

$C$DW$559	.dwtag  DW_TAG_variable
	.dwattr $C$DW$559, DW_AT_name("n0530_")
	.dwattr $C$DW$559, DW_AT_TI_symbol_name("n0530_")
	.dwattr $C$DW$559, DW_AT_type(*$C$DW$T$10)
	.dwattr $C$DW$559, DW_AT_location[DW_OP_breg13 3204]

$C$DW$560	.dwtag  DW_TAG_variable
	.dwattr $C$DW$560, DW_AT_name("n0531_")
	.dwattr $C$DW$560, DW_AT_TI_symbol_name("n0531_")
	.dwattr $C$DW$560, DW_AT_type(*$C$DW$T$10)
	.dwattr $C$DW$560, DW_AT_location[DW_OP_breg13 3208]

$C$DW$561	.dwtag  DW_TAG_variable
	.dwattr $C$DW$561, DW_AT_name("n0532_")
	.dwattr $C$DW$561, DW_AT_TI_symbol_name("n0532_")
	.dwattr $C$DW$561, DW_AT_type(*$C$DW$T$10)
	.dwattr $C$DW$561, DW_AT_location[DW_OP_breg13 3212]

$C$DW$562	.dwtag  DW_TAG_variable
	.dwattr $C$DW$562, DW_AT_name("n0533_")
	.dwattr $C$DW$562, DW_AT_TI_symbol_name("n0533_")
	.dwattr $C$DW$562, DW_AT_type(*$C$DW$T$10)
	.dwattr $C$DW$562, DW_AT_location[DW_OP_breg13 3216]

$C$DW$563	.dwtag  DW_TAG_variable
	.dwattr $C$DW$563, DW_AT_name("n0534_")
	.dwattr $C$DW$563, DW_AT_TI_symbol_name("n0534_")
	.dwattr $C$DW$563, DW_AT_type(*$C$DW$T$10)
	.dwattr $C$DW$563, DW_AT_location[DW_OP_breg13 3220]

$C$DW$564	.dwtag  DW_TAG_variable
	.dwattr $C$DW$564, DW_AT_name("n0535_")
	.dwattr $C$DW$564, DW_AT_TI_symbol_name("n0535_")
	.dwattr $C$DW$564, DW_AT_type(*$C$DW$T$10)
	.dwattr $C$DW$564, DW_AT_location[DW_OP_breg13 3224]

$C$DW$565	.dwtag  DW_TAG_variable
	.dwattr $C$DW$565, DW_AT_name("n0536_")
	.dwattr $C$DW$565, DW_AT_TI_symbol_name("n0536_")
	.dwattr $C$DW$565, DW_AT_type(*$C$DW$T$10)
	.dwattr $C$DW$565, DW_AT_location[DW_OP_breg13 3228]

$C$DW$566	.dwtag  DW_TAG_variable
	.dwattr $C$DW$566, DW_AT_name("n0537_")
	.dwattr $C$DW$566, DW_AT_TI_symbol_name("n0537_")
	.dwattr $C$DW$566, DW_AT_type(*$C$DW$T$10)
	.dwattr $C$DW$566, DW_AT_location[DW_OP_breg13 3232]

$C$DW$567	.dwtag  DW_TAG_variable
	.dwattr $C$DW$567, DW_AT_name("n0538_")
	.dwattr $C$DW$567, DW_AT_TI_symbol_name("n0538_")
	.dwattr $C$DW$567, DW_AT_type(*$C$DW$T$10)
	.dwattr $C$DW$567, DW_AT_location[DW_OP_breg13 3236]

$C$DW$568	.dwtag  DW_TAG_variable
	.dwattr $C$DW$568, DW_AT_name("n0539_")
	.dwattr $C$DW$568, DW_AT_TI_symbol_name("n0539_")
	.dwattr $C$DW$568, DW_AT_type(*$C$DW$T$10)
	.dwattr $C$DW$568, DW_AT_location[DW_OP_breg13 3240]

$C$DW$569	.dwtag  DW_TAG_variable
	.dwattr $C$DW$569, DW_AT_name("n0540_")
	.dwattr $C$DW$569, DW_AT_TI_symbol_name("n0540_")
	.dwattr $C$DW$569, DW_AT_type(*$C$DW$T$10)
	.dwattr $C$DW$569, DW_AT_location[DW_OP_breg13 3244]

$C$DW$570	.dwtag  DW_TAG_variable
	.dwattr $C$DW$570, DW_AT_name("n0541_")
	.dwattr $C$DW$570, DW_AT_TI_symbol_name("n0541_")
	.dwattr $C$DW$570, DW_AT_type(*$C$DW$T$10)
	.dwattr $C$DW$570, DW_AT_location[DW_OP_breg13 3248]

$C$DW$571	.dwtag  DW_TAG_variable
	.dwattr $C$DW$571, DW_AT_name("n0542_")
	.dwattr $C$DW$571, DW_AT_TI_symbol_name("n0542_")
	.dwattr $C$DW$571, DW_AT_type(*$C$DW$T$10)
	.dwattr $C$DW$571, DW_AT_location[DW_OP_breg13 3252]

$C$DW$572	.dwtag  DW_TAG_variable
	.dwattr $C$DW$572, DW_AT_name("n0543_")
	.dwattr $C$DW$572, DW_AT_TI_symbol_name("n0543_")
	.dwattr $C$DW$572, DW_AT_type(*$C$DW$T$10)
	.dwattr $C$DW$572, DW_AT_location[DW_OP_breg13 3256]

$C$DW$573	.dwtag  DW_TAG_variable
	.dwattr $C$DW$573, DW_AT_name("n0544_")
	.dwattr $C$DW$573, DW_AT_TI_symbol_name("n0544_")
	.dwattr $C$DW$573, DW_AT_type(*$C$DW$T$10)
	.dwattr $C$DW$573, DW_AT_location[DW_OP_breg13 3260]

$C$DW$574	.dwtag  DW_TAG_variable
	.dwattr $C$DW$574, DW_AT_name("n0545_")
	.dwattr $C$DW$574, DW_AT_TI_symbol_name("n0545_")
	.dwattr $C$DW$574, DW_AT_type(*$C$DW$T$10)
	.dwattr $C$DW$574, DW_AT_location[DW_OP_breg13 3264]

$C$DW$575	.dwtag  DW_TAG_variable
	.dwattr $C$DW$575, DW_AT_name("n0546_")
	.dwattr $C$DW$575, DW_AT_TI_symbol_name("n0546_")
	.dwattr $C$DW$575, DW_AT_type(*$C$DW$T$10)
	.dwattr $C$DW$575, DW_AT_location[DW_OP_breg13 3268]

$C$DW$576	.dwtag  DW_TAG_variable
	.dwattr $C$DW$576, DW_AT_name("n0547_")
	.dwattr $C$DW$576, DW_AT_TI_symbol_name("n0547_")
	.dwattr $C$DW$576, DW_AT_type(*$C$DW$T$10)
	.dwattr $C$DW$576, DW_AT_location[DW_OP_breg13 3272]

$C$DW$577	.dwtag  DW_TAG_variable
	.dwattr $C$DW$577, DW_AT_name("n0548_")
	.dwattr $C$DW$577, DW_AT_TI_symbol_name("n0548_")
	.dwattr $C$DW$577, DW_AT_type(*$C$DW$T$10)
	.dwattr $C$DW$577, DW_AT_location[DW_OP_breg13 3276]

$C$DW$578	.dwtag  DW_TAG_variable
	.dwattr $C$DW$578, DW_AT_name("n0549_")
	.dwattr $C$DW$578, DW_AT_TI_symbol_name("n0549_")
	.dwattr $C$DW$578, DW_AT_type(*$C$DW$T$10)
	.dwattr $C$DW$578, DW_AT_location[DW_OP_breg13 3280]

$C$DW$579	.dwtag  DW_TAG_variable
	.dwattr $C$DW$579, DW_AT_name("n0550_")
	.dwattr $C$DW$579, DW_AT_TI_symbol_name("n0550_")
	.dwattr $C$DW$579, DW_AT_type(*$C$DW$T$10)
	.dwattr $C$DW$579, DW_AT_location[DW_OP_breg13 3284]

$C$DW$580	.dwtag  DW_TAG_variable
	.dwattr $C$DW$580, DW_AT_name("n0551_")
	.dwattr $C$DW$580, DW_AT_TI_symbol_name("n0551_")
	.dwattr $C$DW$580, DW_AT_type(*$C$DW$T$10)
	.dwattr $C$DW$580, DW_AT_location[DW_OP_breg13 3288]

$C$DW$581	.dwtag  DW_TAG_variable
	.dwattr $C$DW$581, DW_AT_name("n0552_")
	.dwattr $C$DW$581, DW_AT_TI_symbol_name("n0552_")
	.dwattr $C$DW$581, DW_AT_type(*$C$DW$T$10)
	.dwattr $C$DW$581, DW_AT_location[DW_OP_breg13 3292]

$C$DW$582	.dwtag  DW_TAG_variable
	.dwattr $C$DW$582, DW_AT_name("n0553_")
	.dwattr $C$DW$582, DW_AT_TI_symbol_name("n0553_")
	.dwattr $C$DW$582, DW_AT_type(*$C$DW$T$10)
	.dwattr $C$DW$582, DW_AT_location[DW_OP_breg13 3296]

$C$DW$583	.dwtag  DW_TAG_variable
	.dwattr $C$DW$583, DW_AT_name("n0554_")
	.dwattr $C$DW$583, DW_AT_TI_symbol_name("n0554_")
	.dwattr $C$DW$583, DW_AT_type(*$C$DW$T$10)
	.dwattr $C$DW$583, DW_AT_location[DW_OP_breg13 3300]

$C$DW$584	.dwtag  DW_TAG_variable
	.dwattr $C$DW$584, DW_AT_name("n0555_")
	.dwattr $C$DW$584, DW_AT_TI_symbol_name("n0555_")
	.dwattr $C$DW$584, DW_AT_type(*$C$DW$T$10)
	.dwattr $C$DW$584, DW_AT_location[DW_OP_breg13 3304]

$C$DW$585	.dwtag  DW_TAG_variable
	.dwattr $C$DW$585, DW_AT_name("n0556_")
	.dwattr $C$DW$585, DW_AT_TI_symbol_name("n0556_")
	.dwattr $C$DW$585, DW_AT_type(*$C$DW$T$10)
	.dwattr $C$DW$585, DW_AT_location[DW_OP_breg13 3308]

$C$DW$586	.dwtag  DW_TAG_variable
	.dwattr $C$DW$586, DW_AT_name("n0557_")
	.dwattr $C$DW$586, DW_AT_TI_symbol_name("n0557_")
	.dwattr $C$DW$586, DW_AT_type(*$C$DW$T$10)
	.dwattr $C$DW$586, DW_AT_location[DW_OP_breg13 3312]

$C$DW$587	.dwtag  DW_TAG_variable
	.dwattr $C$DW$587, DW_AT_name("n0558_")
	.dwattr $C$DW$587, DW_AT_TI_symbol_name("n0558_")
	.dwattr $C$DW$587, DW_AT_type(*$C$DW$T$10)
	.dwattr $C$DW$587, DW_AT_location[DW_OP_breg13 3316]

$C$DW$588	.dwtag  DW_TAG_variable
	.dwattr $C$DW$588, DW_AT_name("n0559_")
	.dwattr $C$DW$588, DW_AT_TI_symbol_name("n0559_")
	.dwattr $C$DW$588, DW_AT_type(*$C$DW$T$10)
	.dwattr $C$DW$588, DW_AT_location[DW_OP_breg13 3320]

$C$DW$589	.dwtag  DW_TAG_variable
	.dwattr $C$DW$589, DW_AT_name("n0560_")
	.dwattr $C$DW$589, DW_AT_TI_symbol_name("n0560_")
	.dwattr $C$DW$589, DW_AT_type(*$C$DW$T$10)
	.dwattr $C$DW$589, DW_AT_location[DW_OP_breg13 3324]

$C$DW$590	.dwtag  DW_TAG_variable
	.dwattr $C$DW$590, DW_AT_name("n0561_")
	.dwattr $C$DW$590, DW_AT_TI_symbol_name("n0561_")
	.dwattr $C$DW$590, DW_AT_type(*$C$DW$T$10)
	.dwattr $C$DW$590, DW_AT_location[DW_OP_breg13 3328]

$C$DW$591	.dwtag  DW_TAG_variable
	.dwattr $C$DW$591, DW_AT_name("n0562_")
	.dwattr $C$DW$591, DW_AT_TI_symbol_name("n0562_")
	.dwattr $C$DW$591, DW_AT_type(*$C$DW$T$10)
	.dwattr $C$DW$591, DW_AT_location[DW_OP_breg13 3332]

$C$DW$592	.dwtag  DW_TAG_variable
	.dwattr $C$DW$592, DW_AT_name("n0563_")
	.dwattr $C$DW$592, DW_AT_TI_symbol_name("n0563_")
	.dwattr $C$DW$592, DW_AT_type(*$C$DW$T$10)
	.dwattr $C$DW$592, DW_AT_location[DW_OP_breg13 3336]

$C$DW$593	.dwtag  DW_TAG_variable
	.dwattr $C$DW$593, DW_AT_name("n0564_")
	.dwattr $C$DW$593, DW_AT_TI_symbol_name("n0564_")
	.dwattr $C$DW$593, DW_AT_type(*$C$DW$T$10)
	.dwattr $C$DW$593, DW_AT_location[DW_OP_breg13 3340]

$C$DW$594	.dwtag  DW_TAG_variable
	.dwattr $C$DW$594, DW_AT_name("n0565_")
	.dwattr $C$DW$594, DW_AT_TI_symbol_name("n0565_")
	.dwattr $C$DW$594, DW_AT_type(*$C$DW$T$10)
	.dwattr $C$DW$594, DW_AT_location[DW_OP_breg13 3344]

$C$DW$595	.dwtag  DW_TAG_variable
	.dwattr $C$DW$595, DW_AT_name("n0566_")
	.dwattr $C$DW$595, DW_AT_TI_symbol_name("n0566_")
	.dwattr $C$DW$595, DW_AT_type(*$C$DW$T$10)
	.dwattr $C$DW$595, DW_AT_location[DW_OP_breg13 3348]

$C$DW$596	.dwtag  DW_TAG_variable
	.dwattr $C$DW$596, DW_AT_name("n0567_")
	.dwattr $C$DW$596, DW_AT_TI_symbol_name("n0567_")
	.dwattr $C$DW$596, DW_AT_type(*$C$DW$T$10)
	.dwattr $C$DW$596, DW_AT_location[DW_OP_breg13 3352]

$C$DW$597	.dwtag  DW_TAG_variable
	.dwattr $C$DW$597, DW_AT_name("n0568_")
	.dwattr $C$DW$597, DW_AT_TI_symbol_name("n0568_")
	.dwattr $C$DW$597, DW_AT_type(*$C$DW$T$10)
	.dwattr $C$DW$597, DW_AT_location[DW_OP_breg13 3356]

$C$DW$598	.dwtag  DW_TAG_variable
	.dwattr $C$DW$598, DW_AT_name("n0569_")
	.dwattr $C$DW$598, DW_AT_TI_symbol_name("n0569_")
	.dwattr $C$DW$598, DW_AT_type(*$C$DW$T$10)
	.dwattr $C$DW$598, DW_AT_location[DW_OP_breg13 3360]

$C$DW$599	.dwtag  DW_TAG_variable
	.dwattr $C$DW$599, DW_AT_name("n0570_")
	.dwattr $C$DW$599, DW_AT_TI_symbol_name("n0570_")
	.dwattr $C$DW$599, DW_AT_type(*$C$DW$T$10)
	.dwattr $C$DW$599, DW_AT_location[DW_OP_breg13 3364]

$C$DW$600	.dwtag  DW_TAG_variable
	.dwattr $C$DW$600, DW_AT_name("n0571_")
	.dwattr $C$DW$600, DW_AT_TI_symbol_name("n0571_")
	.dwattr $C$DW$600, DW_AT_type(*$C$DW$T$10)
	.dwattr $C$DW$600, DW_AT_location[DW_OP_breg13 3368]

$C$DW$601	.dwtag  DW_TAG_variable
	.dwattr $C$DW$601, DW_AT_name("n0572_")
	.dwattr $C$DW$601, DW_AT_TI_symbol_name("n0572_")
	.dwattr $C$DW$601, DW_AT_type(*$C$DW$T$10)
	.dwattr $C$DW$601, DW_AT_location[DW_OP_breg13 3372]

$C$DW$602	.dwtag  DW_TAG_variable
	.dwattr $C$DW$602, DW_AT_name("n0573_")
	.dwattr $C$DW$602, DW_AT_TI_symbol_name("n0573_")
	.dwattr $C$DW$602, DW_AT_type(*$C$DW$T$10)
	.dwattr $C$DW$602, DW_AT_location[DW_OP_breg13 3376]

$C$DW$603	.dwtag  DW_TAG_variable
	.dwattr $C$DW$603, DW_AT_name("n0574_")
	.dwattr $C$DW$603, DW_AT_TI_symbol_name("n0574_")
	.dwattr $C$DW$603, DW_AT_type(*$C$DW$T$10)
	.dwattr $C$DW$603, DW_AT_location[DW_OP_breg13 3380]

$C$DW$604	.dwtag  DW_TAG_variable
	.dwattr $C$DW$604, DW_AT_name("n0575_")
	.dwattr $C$DW$604, DW_AT_TI_symbol_name("n0575_")
	.dwattr $C$DW$604, DW_AT_type(*$C$DW$T$10)
	.dwattr $C$DW$604, DW_AT_location[DW_OP_breg13 3384]

$C$DW$605	.dwtag  DW_TAG_variable
	.dwattr $C$DW$605, DW_AT_name("n0576_")
	.dwattr $C$DW$605, DW_AT_TI_symbol_name("n0576_")
	.dwattr $C$DW$605, DW_AT_type(*$C$DW$T$10)
	.dwattr $C$DW$605, DW_AT_location[DW_OP_breg13 3388]

$C$DW$606	.dwtag  DW_TAG_variable
	.dwattr $C$DW$606, DW_AT_name("n0577_")
	.dwattr $C$DW$606, DW_AT_TI_symbol_name("n0577_")
	.dwattr $C$DW$606, DW_AT_type(*$C$DW$T$10)
	.dwattr $C$DW$606, DW_AT_location[DW_OP_breg13 3392]

$C$DW$607	.dwtag  DW_TAG_variable
	.dwattr $C$DW$607, DW_AT_name("n0578_")
	.dwattr $C$DW$607, DW_AT_TI_symbol_name("n0578_")
	.dwattr $C$DW$607, DW_AT_type(*$C$DW$T$10)
	.dwattr $C$DW$607, DW_AT_location[DW_OP_breg13 3396]

$C$DW$608	.dwtag  DW_TAG_variable
	.dwattr $C$DW$608, DW_AT_name("n0579_")
	.dwattr $C$DW$608, DW_AT_TI_symbol_name("n0579_")
	.dwattr $C$DW$608, DW_AT_type(*$C$DW$T$10)
	.dwattr $C$DW$608, DW_AT_location[DW_OP_breg13 3400]

$C$DW$609	.dwtag  DW_TAG_variable
	.dwattr $C$DW$609, DW_AT_name("n0580_")
	.dwattr $C$DW$609, DW_AT_TI_symbol_name("n0580_")
	.dwattr $C$DW$609, DW_AT_type(*$C$DW$T$10)
	.dwattr $C$DW$609, DW_AT_location[DW_OP_breg13 3404]

$C$DW$610	.dwtag  DW_TAG_variable
	.dwattr $C$DW$610, DW_AT_name("n0581_")
	.dwattr $C$DW$610, DW_AT_TI_symbol_name("n0581_")
	.dwattr $C$DW$610, DW_AT_type(*$C$DW$T$10)
	.dwattr $C$DW$610, DW_AT_location[DW_OP_breg13 3408]

$C$DW$611	.dwtag  DW_TAG_variable
	.dwattr $C$DW$611, DW_AT_name("n0582_")
	.dwattr $C$DW$611, DW_AT_TI_symbol_name("n0582_")
	.dwattr $C$DW$611, DW_AT_type(*$C$DW$T$10)
	.dwattr $C$DW$611, DW_AT_location[DW_OP_breg13 3412]

$C$DW$612	.dwtag  DW_TAG_variable
	.dwattr $C$DW$612, DW_AT_name("n0583_")
	.dwattr $C$DW$612, DW_AT_TI_symbol_name("n0583_")
	.dwattr $C$DW$612, DW_AT_type(*$C$DW$T$10)
	.dwattr $C$DW$612, DW_AT_location[DW_OP_breg13 3416]

$C$DW$613	.dwtag  DW_TAG_variable
	.dwattr $C$DW$613, DW_AT_name("n0584_")
	.dwattr $C$DW$613, DW_AT_TI_symbol_name("n0584_")
	.dwattr $C$DW$613, DW_AT_type(*$C$DW$T$10)
	.dwattr $C$DW$613, DW_AT_location[DW_OP_breg13 3420]

$C$DW$614	.dwtag  DW_TAG_variable
	.dwattr $C$DW$614, DW_AT_name("n0585_")
	.dwattr $C$DW$614, DW_AT_TI_symbol_name("n0585_")
	.dwattr $C$DW$614, DW_AT_type(*$C$DW$T$10)
	.dwattr $C$DW$614, DW_AT_location[DW_OP_breg13 3424]

$C$DW$615	.dwtag  DW_TAG_variable
	.dwattr $C$DW$615, DW_AT_name("n0586_")
	.dwattr $C$DW$615, DW_AT_TI_symbol_name("n0586_")
	.dwattr $C$DW$615, DW_AT_type(*$C$DW$T$10)
	.dwattr $C$DW$615, DW_AT_location[DW_OP_breg13 3428]

$C$DW$616	.dwtag  DW_TAG_variable
	.dwattr $C$DW$616, DW_AT_name("n0587_")
	.dwattr $C$DW$616, DW_AT_TI_symbol_name("n0587_")
	.dwattr $C$DW$616, DW_AT_type(*$C$DW$T$10)
	.dwattr $C$DW$616, DW_AT_location[DW_OP_breg13 3432]

$C$DW$617	.dwtag  DW_TAG_variable
	.dwattr $C$DW$617, DW_AT_name("n0588_")
	.dwattr $C$DW$617, DW_AT_TI_symbol_name("n0588_")
	.dwattr $C$DW$617, DW_AT_type(*$C$DW$T$10)
	.dwattr $C$DW$617, DW_AT_location[DW_OP_breg13 3436]

$C$DW$618	.dwtag  DW_TAG_variable
	.dwattr $C$DW$618, DW_AT_name("n0589_")
	.dwattr $C$DW$618, DW_AT_TI_symbol_name("n0589_")
	.dwattr $C$DW$618, DW_AT_type(*$C$DW$T$10)
	.dwattr $C$DW$618, DW_AT_location[DW_OP_breg13 3440]

$C$DW$619	.dwtag  DW_TAG_variable
	.dwattr $C$DW$619, DW_AT_name("n0590_")
	.dwattr $C$DW$619, DW_AT_TI_symbol_name("n0590_")
	.dwattr $C$DW$619, DW_AT_type(*$C$DW$T$10)
	.dwattr $C$DW$619, DW_AT_location[DW_OP_breg13 3444]

$C$DW$620	.dwtag  DW_TAG_variable
	.dwattr $C$DW$620, DW_AT_name("n0591_")
	.dwattr $C$DW$620, DW_AT_TI_symbol_name("n0591_")
	.dwattr $C$DW$620, DW_AT_type(*$C$DW$T$10)
	.dwattr $C$DW$620, DW_AT_location[DW_OP_breg13 3448]

$C$DW$621	.dwtag  DW_TAG_variable
	.dwattr $C$DW$621, DW_AT_name("n0592_")
	.dwattr $C$DW$621, DW_AT_TI_symbol_name("n0592_")
	.dwattr $C$DW$621, DW_AT_type(*$C$DW$T$10)
	.dwattr $C$DW$621, DW_AT_location[DW_OP_breg13 3452]

$C$DW$622	.dwtag  DW_TAG_variable
	.dwattr $C$DW$622, DW_AT_name("n0593_")
	.dwattr $C$DW$622, DW_AT_TI_symbol_name("n0593_")
	.dwattr $C$DW$622, DW_AT_type(*$C$DW$T$10)
	.dwattr $C$DW$622, DW_AT_location[DW_OP_breg13 3456]

$C$DW$623	.dwtag  DW_TAG_variable
	.dwattr $C$DW$623, DW_AT_name("n0594_")
	.dwattr $C$DW$623, DW_AT_TI_symbol_name("n0594_")
	.dwattr $C$DW$623, DW_AT_type(*$C$DW$T$10)
	.dwattr $C$DW$623, DW_AT_location[DW_OP_breg13 3460]

$C$DW$624	.dwtag  DW_TAG_variable
	.dwattr $C$DW$624, DW_AT_name("n0595_")
	.dwattr $C$DW$624, DW_AT_TI_symbol_name("n0595_")
	.dwattr $C$DW$624, DW_AT_type(*$C$DW$T$10)
	.dwattr $C$DW$624, DW_AT_location[DW_OP_breg13 3464]

$C$DW$625	.dwtag  DW_TAG_variable
	.dwattr $C$DW$625, DW_AT_name("n0596_")
	.dwattr $C$DW$625, DW_AT_TI_symbol_name("n0596_")
	.dwattr $C$DW$625, DW_AT_type(*$C$DW$T$10)
	.dwattr $C$DW$625, DW_AT_location[DW_OP_breg13 3468]

$C$DW$626	.dwtag  DW_TAG_variable
	.dwattr $C$DW$626, DW_AT_name("n0597_")
	.dwattr $C$DW$626, DW_AT_TI_symbol_name("n0597_")
	.dwattr $C$DW$626, DW_AT_type(*$C$DW$T$10)
	.dwattr $C$DW$626, DW_AT_location[DW_OP_breg13 3472]

$C$DW$627	.dwtag  DW_TAG_variable
	.dwattr $C$DW$627, DW_AT_name("n0598_")
	.dwattr $C$DW$627, DW_AT_TI_symbol_name("n0598_")
	.dwattr $C$DW$627, DW_AT_type(*$C$DW$T$10)
	.dwattr $C$DW$627, DW_AT_location[DW_OP_breg13 3476]

$C$DW$628	.dwtag  DW_TAG_variable
	.dwattr $C$DW$628, DW_AT_name("n0599_")
	.dwattr $C$DW$628, DW_AT_TI_symbol_name("n0599_")
	.dwattr $C$DW$628, DW_AT_type(*$C$DW$T$10)
	.dwattr $C$DW$628, DW_AT_location[DW_OP_breg13 3480]

$C$DW$629	.dwtag  DW_TAG_variable
	.dwattr $C$DW$629, DW_AT_name("n0600_")
	.dwattr $C$DW$629, DW_AT_TI_symbol_name("n0600_")
	.dwattr $C$DW$629, DW_AT_type(*$C$DW$T$10)
	.dwattr $C$DW$629, DW_AT_location[DW_OP_breg13 3484]

$C$DW$630	.dwtag  DW_TAG_variable
	.dwattr $C$DW$630, DW_AT_name("n0601_")
	.dwattr $C$DW$630, DW_AT_TI_symbol_name("n0601_")
	.dwattr $C$DW$630, DW_AT_type(*$C$DW$T$10)
	.dwattr $C$DW$630, DW_AT_location[DW_OP_breg13 3488]

$C$DW$631	.dwtag  DW_TAG_variable
	.dwattr $C$DW$631, DW_AT_name("n0602_")
	.dwattr $C$DW$631, DW_AT_TI_symbol_name("n0602_")
	.dwattr $C$DW$631, DW_AT_type(*$C$DW$T$10)
	.dwattr $C$DW$631, DW_AT_location[DW_OP_breg13 3492]

$C$DW$632	.dwtag  DW_TAG_variable
	.dwattr $C$DW$632, DW_AT_name("n0603_")
	.dwattr $C$DW$632, DW_AT_TI_symbol_name("n0603_")
	.dwattr $C$DW$632, DW_AT_type(*$C$DW$T$10)
	.dwattr $C$DW$632, DW_AT_location[DW_OP_breg13 3496]

$C$DW$633	.dwtag  DW_TAG_variable
	.dwattr $C$DW$633, DW_AT_name("n0604_")
	.dwattr $C$DW$633, DW_AT_TI_symbol_name("n0604_")
	.dwattr $C$DW$633, DW_AT_type(*$C$DW$T$10)
	.dwattr $C$DW$633, DW_AT_location[DW_OP_breg13 3500]

$C$DW$634	.dwtag  DW_TAG_variable
	.dwattr $C$DW$634, DW_AT_name("n0605_")
	.dwattr $C$DW$634, DW_AT_TI_symbol_name("n0605_")
	.dwattr $C$DW$634, DW_AT_type(*$C$DW$T$10)
	.dwattr $C$DW$634, DW_AT_location[DW_OP_breg13 3504]

$C$DW$635	.dwtag  DW_TAG_variable
	.dwattr $C$DW$635, DW_AT_name("n0606_")
	.dwattr $C$DW$635, DW_AT_TI_symbol_name("n0606_")
	.dwattr $C$DW$635, DW_AT_type(*$C$DW$T$10)
	.dwattr $C$DW$635, DW_AT_location[DW_OP_breg13 3508]

$C$DW$636	.dwtag  DW_TAG_variable
	.dwattr $C$DW$636, DW_AT_name("n0607_")
	.dwattr $C$DW$636, DW_AT_TI_symbol_name("n0607_")
	.dwattr $C$DW$636, DW_AT_type(*$C$DW$T$10)
	.dwattr $C$DW$636, DW_AT_location[DW_OP_breg13 3512]

$C$DW$637	.dwtag  DW_TAG_variable
	.dwattr $C$DW$637, DW_AT_name("n0608_")
	.dwattr $C$DW$637, DW_AT_TI_symbol_name("n0608_")
	.dwattr $C$DW$637, DW_AT_type(*$C$DW$T$10)
	.dwattr $C$DW$637, DW_AT_location[DW_OP_breg13 3516]

$C$DW$638	.dwtag  DW_TAG_variable
	.dwattr $C$DW$638, DW_AT_name("n0609_")
	.dwattr $C$DW$638, DW_AT_TI_symbol_name("n0609_")
	.dwattr $C$DW$638, DW_AT_type(*$C$DW$T$10)
	.dwattr $C$DW$638, DW_AT_location[DW_OP_breg13 3520]

$C$DW$639	.dwtag  DW_TAG_variable
	.dwattr $C$DW$639, DW_AT_name("n0610_")
	.dwattr $C$DW$639, DW_AT_TI_symbol_name("n0610_")
	.dwattr $C$DW$639, DW_AT_type(*$C$DW$T$10)
	.dwattr $C$DW$639, DW_AT_location[DW_OP_breg13 3524]

$C$DW$640	.dwtag  DW_TAG_variable
	.dwattr $C$DW$640, DW_AT_name("n0611_")
	.dwattr $C$DW$640, DW_AT_TI_symbol_name("n0611_")
	.dwattr $C$DW$640, DW_AT_type(*$C$DW$T$10)
	.dwattr $C$DW$640, DW_AT_location[DW_OP_breg13 3528]

$C$DW$641	.dwtag  DW_TAG_variable
	.dwattr $C$DW$641, DW_AT_name("n0612_")
	.dwattr $C$DW$641, DW_AT_TI_symbol_name("n0612_")
	.dwattr $C$DW$641, DW_AT_type(*$C$DW$T$10)
	.dwattr $C$DW$641, DW_AT_location[DW_OP_breg13 3532]

$C$DW$642	.dwtag  DW_TAG_variable
	.dwattr $C$DW$642, DW_AT_name("n0613_")
	.dwattr $C$DW$642, DW_AT_TI_symbol_name("n0613_")
	.dwattr $C$DW$642, DW_AT_type(*$C$DW$T$10)
	.dwattr $C$DW$642, DW_AT_location[DW_OP_breg13 3536]

$C$DW$643	.dwtag  DW_TAG_variable
	.dwattr $C$DW$643, DW_AT_name("n0614_")
	.dwattr $C$DW$643, DW_AT_TI_symbol_name("n0614_")
	.dwattr $C$DW$643, DW_AT_type(*$C$DW$T$10)
	.dwattr $C$DW$643, DW_AT_location[DW_OP_breg13 3540]

$C$DW$644	.dwtag  DW_TAG_variable
	.dwattr $C$DW$644, DW_AT_name("n0615_")
	.dwattr $C$DW$644, DW_AT_TI_symbol_name("n0615_")
	.dwattr $C$DW$644, DW_AT_type(*$C$DW$T$10)
	.dwattr $C$DW$644, DW_AT_location[DW_OP_breg13 3544]

$C$DW$645	.dwtag  DW_TAG_variable
	.dwattr $C$DW$645, DW_AT_name("n0616_")
	.dwattr $C$DW$645, DW_AT_TI_symbol_name("n0616_")
	.dwattr $C$DW$645, DW_AT_type(*$C$DW$T$10)
	.dwattr $C$DW$645, DW_AT_location[DW_OP_breg13 3548]

$C$DW$646	.dwtag  DW_TAG_variable
	.dwattr $C$DW$646, DW_AT_name("n0617_")
	.dwattr $C$DW$646, DW_AT_TI_symbol_name("n0617_")
	.dwattr $C$DW$646, DW_AT_type(*$C$DW$T$10)
	.dwattr $C$DW$646, DW_AT_location[DW_OP_breg13 3552]

$C$DW$647	.dwtag  DW_TAG_variable
	.dwattr $C$DW$647, DW_AT_name("n0618_")
	.dwattr $C$DW$647, DW_AT_TI_symbol_name("n0618_")
	.dwattr $C$DW$647, DW_AT_type(*$C$DW$T$10)
	.dwattr $C$DW$647, DW_AT_location[DW_OP_breg13 3556]

$C$DW$648	.dwtag  DW_TAG_variable
	.dwattr $C$DW$648, DW_AT_name("n0619_")
	.dwattr $C$DW$648, DW_AT_TI_symbol_name("n0619_")
	.dwattr $C$DW$648, DW_AT_type(*$C$DW$T$10)
	.dwattr $C$DW$648, DW_AT_location[DW_OP_breg13 3560]

$C$DW$649	.dwtag  DW_TAG_variable
	.dwattr $C$DW$649, DW_AT_name("n0620_")
	.dwattr $C$DW$649, DW_AT_TI_symbol_name("n0620_")
	.dwattr $C$DW$649, DW_AT_type(*$C$DW$T$10)
	.dwattr $C$DW$649, DW_AT_location[DW_OP_breg13 3564]

$C$DW$650	.dwtag  DW_TAG_variable
	.dwattr $C$DW$650, DW_AT_name("n0621_")
	.dwattr $C$DW$650, DW_AT_TI_symbol_name("n0621_")
	.dwattr $C$DW$650, DW_AT_type(*$C$DW$T$10)
	.dwattr $C$DW$650, DW_AT_location[DW_OP_breg13 3568]

$C$DW$651	.dwtag  DW_TAG_variable
	.dwattr $C$DW$651, DW_AT_name("n0622_")
	.dwattr $C$DW$651, DW_AT_TI_symbol_name("n0622_")
	.dwattr $C$DW$651, DW_AT_type(*$C$DW$T$10)
	.dwattr $C$DW$651, DW_AT_location[DW_OP_breg13 3572]

$C$DW$652	.dwtag  DW_TAG_variable
	.dwattr $C$DW$652, DW_AT_name("n0623_")
	.dwattr $C$DW$652, DW_AT_TI_symbol_name("n0623_")
	.dwattr $C$DW$652, DW_AT_type(*$C$DW$T$10)
	.dwattr $C$DW$652, DW_AT_location[DW_OP_breg13 3576]

$C$DW$653	.dwtag  DW_TAG_variable
	.dwattr $C$DW$653, DW_AT_name("n0624_")
	.dwattr $C$DW$653, DW_AT_TI_symbol_name("n0624_")
	.dwattr $C$DW$653, DW_AT_type(*$C$DW$T$10)
	.dwattr $C$DW$653, DW_AT_location[DW_OP_breg13 3580]

$C$DW$654	.dwtag  DW_TAG_variable
	.dwattr $C$DW$654, DW_AT_name("n0625_")
	.dwattr $C$DW$654, DW_AT_TI_symbol_name("n0625_")
	.dwattr $C$DW$654, DW_AT_type(*$C$DW$T$10)
	.dwattr $C$DW$654, DW_AT_location[DW_OP_breg13 3584]

$C$DW$655	.dwtag  DW_TAG_variable
	.dwattr $C$DW$655, DW_AT_name("n0626_")
	.dwattr $C$DW$655, DW_AT_TI_symbol_name("n0626_")
	.dwattr $C$DW$655, DW_AT_type(*$C$DW$T$10)
	.dwattr $C$DW$655, DW_AT_location[DW_OP_breg13 3588]

$C$DW$656	.dwtag  DW_TAG_variable
	.dwattr $C$DW$656, DW_AT_name("n0627_")
	.dwattr $C$DW$656, DW_AT_TI_symbol_name("n0627_")
	.dwattr $C$DW$656, DW_AT_type(*$C$DW$T$10)
	.dwattr $C$DW$656, DW_AT_location[DW_OP_breg13 3592]

$C$DW$657	.dwtag  DW_TAG_variable
	.dwattr $C$DW$657, DW_AT_name("n0628_")
	.dwattr $C$DW$657, DW_AT_TI_symbol_name("n0628_")
	.dwattr $C$DW$657, DW_AT_type(*$C$DW$T$10)
	.dwattr $C$DW$657, DW_AT_location[DW_OP_breg13 3596]

$C$DW$658	.dwtag  DW_TAG_variable
	.dwattr $C$DW$658, DW_AT_name("n0629_")
	.dwattr $C$DW$658, DW_AT_TI_symbol_name("n0629_")
	.dwattr $C$DW$658, DW_AT_type(*$C$DW$T$10)
	.dwattr $C$DW$658, DW_AT_location[DW_OP_breg13 3600]

$C$DW$659	.dwtag  DW_TAG_variable
	.dwattr $C$DW$659, DW_AT_name("n0630_")
	.dwattr $C$DW$659, DW_AT_TI_symbol_name("n0630_")
	.dwattr $C$DW$659, DW_AT_type(*$C$DW$T$10)
	.dwattr $C$DW$659, DW_AT_location[DW_OP_breg13 3604]

$C$DW$660	.dwtag  DW_TAG_variable
	.dwattr $C$DW$660, DW_AT_name("n0631_")
	.dwattr $C$DW$660, DW_AT_TI_symbol_name("n0631_")
	.dwattr $C$DW$660, DW_AT_type(*$C$DW$T$10)
	.dwattr $C$DW$660, DW_AT_location[DW_OP_breg13 3608]

$C$DW$661	.dwtag  DW_TAG_variable
	.dwattr $C$DW$661, DW_AT_name("n0632_")
	.dwattr $C$DW$661, DW_AT_TI_symbol_name("n0632_")
	.dwattr $C$DW$661, DW_AT_type(*$C$DW$T$10)
	.dwattr $C$DW$661, DW_AT_location[DW_OP_breg13 3612]

$C$DW$662	.dwtag  DW_TAG_variable
	.dwattr $C$DW$662, DW_AT_name("n0633_")
	.dwattr $C$DW$662, DW_AT_TI_symbol_name("n0633_")
	.dwattr $C$DW$662, DW_AT_type(*$C$DW$T$10)
	.dwattr $C$DW$662, DW_AT_location[DW_OP_breg13 3616]

$C$DW$663	.dwtag  DW_TAG_variable
	.dwattr $C$DW$663, DW_AT_name("n0634_")
	.dwattr $C$DW$663, DW_AT_TI_symbol_name("n0634_")
	.dwattr $C$DW$663, DW_AT_type(*$C$DW$T$10)
	.dwattr $C$DW$663, DW_AT_location[DW_OP_breg13 3620]

$C$DW$664	.dwtag  DW_TAG_variable
	.dwattr $C$DW$664, DW_AT_name("n0635_")
	.dwattr $C$DW$664, DW_AT_TI_symbol_name("n0635_")
	.dwattr $C$DW$664, DW_AT_type(*$C$DW$T$10)
	.dwattr $C$DW$664, DW_AT_location[DW_OP_breg13 3624]

$C$DW$665	.dwtag  DW_TAG_variable
	.dwattr $C$DW$665, DW_AT_name("n0636_")
	.dwattr $C$DW$665, DW_AT_TI_symbol_name("n0636_")
	.dwattr $C$DW$665, DW_AT_type(*$C$DW$T$10)
	.dwattr $C$DW$665, DW_AT_location[DW_OP_breg13 3628]

$C$DW$666	.dwtag  DW_TAG_variable
	.dwattr $C$DW$666, DW_AT_name("n0637_")
	.dwattr $C$DW$666, DW_AT_TI_symbol_name("n0637_")
	.dwattr $C$DW$666, DW_AT_type(*$C$DW$T$10)
	.dwattr $C$DW$666, DW_AT_location[DW_OP_breg13 3632]

$C$DW$667	.dwtag  DW_TAG_variable
	.dwattr $C$DW$667, DW_AT_name("n0638_")
	.dwattr $C$DW$667, DW_AT_TI_symbol_name("n0638_")
	.dwattr $C$DW$667, DW_AT_type(*$C$DW$T$10)
	.dwattr $C$DW$667, DW_AT_location[DW_OP_breg13 3636]

$C$DW$668	.dwtag  DW_TAG_variable
	.dwattr $C$DW$668, DW_AT_name("n0639_")
	.dwattr $C$DW$668, DW_AT_TI_symbol_name("n0639_")
	.dwattr $C$DW$668, DW_AT_type(*$C$DW$T$10)
	.dwattr $C$DW$668, DW_AT_location[DW_OP_breg13 3640]

$C$DW$669	.dwtag  DW_TAG_variable
	.dwattr $C$DW$669, DW_AT_name("n0640_")
	.dwattr $C$DW$669, DW_AT_TI_symbol_name("n0640_")
	.dwattr $C$DW$669, DW_AT_type(*$C$DW$T$10)
	.dwattr $C$DW$669, DW_AT_location[DW_OP_breg13 3644]

$C$DW$670	.dwtag  DW_TAG_variable
	.dwattr $C$DW$670, DW_AT_name("n0641_")
	.dwattr $C$DW$670, DW_AT_TI_symbol_name("n0641_")
	.dwattr $C$DW$670, DW_AT_type(*$C$DW$T$10)
	.dwattr $C$DW$670, DW_AT_location[DW_OP_breg13 3648]

$C$DW$671	.dwtag  DW_TAG_variable
	.dwattr $C$DW$671, DW_AT_name("n0642_")
	.dwattr $C$DW$671, DW_AT_TI_symbol_name("n0642_")
	.dwattr $C$DW$671, DW_AT_type(*$C$DW$T$10)
	.dwattr $C$DW$671, DW_AT_location[DW_OP_breg13 3652]

$C$DW$672	.dwtag  DW_TAG_variable
	.dwattr $C$DW$672, DW_AT_name("n0643_")
	.dwattr $C$DW$672, DW_AT_TI_symbol_name("n0643_")
	.dwattr $C$DW$672, DW_AT_type(*$C$DW$T$10)
	.dwattr $C$DW$672, DW_AT_location[DW_OP_breg13 3656]

$C$DW$673	.dwtag  DW_TAG_variable
	.dwattr $C$DW$673, DW_AT_name("n0644_")
	.dwattr $C$DW$673, DW_AT_TI_symbol_name("n0644_")
	.dwattr $C$DW$673, DW_AT_type(*$C$DW$T$10)
	.dwattr $C$DW$673, DW_AT_location[DW_OP_breg13 3660]

$C$DW$674	.dwtag  DW_TAG_variable
	.dwattr $C$DW$674, DW_AT_name("n0645_")
	.dwattr $C$DW$674, DW_AT_TI_symbol_name("n0645_")
	.dwattr $C$DW$674, DW_AT_type(*$C$DW$T$10)
	.dwattr $C$DW$674, DW_AT_location[DW_OP_breg13 3664]

$C$DW$675	.dwtag  DW_TAG_variable
	.dwattr $C$DW$675, DW_AT_name("n0646_")
	.dwattr $C$DW$675, DW_AT_TI_symbol_name("n0646_")
	.dwattr $C$DW$675, DW_AT_type(*$C$DW$T$10)
	.dwattr $C$DW$675, DW_AT_location[DW_OP_breg13 3668]

$C$DW$676	.dwtag  DW_TAG_variable
	.dwattr $C$DW$676, DW_AT_name("n0647_")
	.dwattr $C$DW$676, DW_AT_TI_symbol_name("n0647_")
	.dwattr $C$DW$676, DW_AT_type(*$C$DW$T$10)
	.dwattr $C$DW$676, DW_AT_location[DW_OP_breg13 3672]

$C$DW$677	.dwtag  DW_TAG_variable
	.dwattr $C$DW$677, DW_AT_name("n0648_")
	.dwattr $C$DW$677, DW_AT_TI_symbol_name("n0648_")
	.dwattr $C$DW$677, DW_AT_type(*$C$DW$T$10)
	.dwattr $C$DW$677, DW_AT_location[DW_OP_breg13 3676]

$C$DW$678	.dwtag  DW_TAG_variable
	.dwattr $C$DW$678, DW_AT_name("n0649_")
	.dwattr $C$DW$678, DW_AT_TI_symbol_name("n0649_")
	.dwattr $C$DW$678, DW_AT_type(*$C$DW$T$10)
	.dwattr $C$DW$678, DW_AT_location[DW_OP_breg13 3680]

$C$DW$679	.dwtag  DW_TAG_variable
	.dwattr $C$DW$679, DW_AT_name("n0650_")
	.dwattr $C$DW$679, DW_AT_TI_symbol_name("n0650_")
	.dwattr $C$DW$679, DW_AT_type(*$C$DW$T$10)
	.dwattr $C$DW$679, DW_AT_location[DW_OP_breg13 3684]

$C$DW$680	.dwtag  DW_TAG_variable
	.dwattr $C$DW$680, DW_AT_name("n0651_")
	.dwattr $C$DW$680, DW_AT_TI_symbol_name("n0651_")
	.dwattr $C$DW$680, DW_AT_type(*$C$DW$T$10)
	.dwattr $C$DW$680, DW_AT_location[DW_OP_breg13 3688]

$C$DW$681	.dwtag  DW_TAG_variable
	.dwattr $C$DW$681, DW_AT_name("n0652_")
	.dwattr $C$DW$681, DW_AT_TI_symbol_name("n0652_")
	.dwattr $C$DW$681, DW_AT_type(*$C$DW$T$10)
	.dwattr $C$DW$681, DW_AT_location[DW_OP_breg13 3692]

$C$DW$682	.dwtag  DW_TAG_variable
	.dwattr $C$DW$682, DW_AT_name("n0653_")
	.dwattr $C$DW$682, DW_AT_TI_symbol_name("n0653_")
	.dwattr $C$DW$682, DW_AT_type(*$C$DW$T$10)
	.dwattr $C$DW$682, DW_AT_location[DW_OP_breg13 3696]

$C$DW$683	.dwtag  DW_TAG_variable
	.dwattr $C$DW$683, DW_AT_name("n0654_")
	.dwattr $C$DW$683, DW_AT_TI_symbol_name("n0654_")
	.dwattr $C$DW$683, DW_AT_type(*$C$DW$T$10)
	.dwattr $C$DW$683, DW_AT_location[DW_OP_breg13 3700]

$C$DW$684	.dwtag  DW_TAG_variable
	.dwattr $C$DW$684, DW_AT_name("n0655_")
	.dwattr $C$DW$684, DW_AT_TI_symbol_name("n0655_")
	.dwattr $C$DW$684, DW_AT_type(*$C$DW$T$10)
	.dwattr $C$DW$684, DW_AT_location[DW_OP_breg13 3704]

$C$DW$685	.dwtag  DW_TAG_variable
	.dwattr $C$DW$685, DW_AT_name("n0656_")
	.dwattr $C$DW$685, DW_AT_TI_symbol_name("n0656_")
	.dwattr $C$DW$685, DW_AT_type(*$C$DW$T$10)
	.dwattr $C$DW$685, DW_AT_location[DW_OP_breg13 3708]

$C$DW$686	.dwtag  DW_TAG_variable
	.dwattr $C$DW$686, DW_AT_name("n0657_")
	.dwattr $C$DW$686, DW_AT_TI_symbol_name("n0657_")
	.dwattr $C$DW$686, DW_AT_type(*$C$DW$T$10)
	.dwattr $C$DW$686, DW_AT_location[DW_OP_breg13 3712]

$C$DW$687	.dwtag  DW_TAG_variable
	.dwattr $C$DW$687, DW_AT_name("n0658_")
	.dwattr $C$DW$687, DW_AT_TI_symbol_name("n0658_")
	.dwattr $C$DW$687, DW_AT_type(*$C$DW$T$10)
	.dwattr $C$DW$687, DW_AT_location[DW_OP_breg13 3716]

$C$DW$688	.dwtag  DW_TAG_variable
	.dwattr $C$DW$688, DW_AT_name("n0659_")
	.dwattr $C$DW$688, DW_AT_TI_symbol_name("n0659_")
	.dwattr $C$DW$688, DW_AT_type(*$C$DW$T$10)
	.dwattr $C$DW$688, DW_AT_location[DW_OP_breg13 3720]

$C$DW$689	.dwtag  DW_TAG_variable
	.dwattr $C$DW$689, DW_AT_name("n0660_")
	.dwattr $C$DW$689, DW_AT_TI_symbol_name("n0660_")
	.dwattr $C$DW$689, DW_AT_type(*$C$DW$T$10)
	.dwattr $C$DW$689, DW_AT_location[DW_OP_breg13 3724]

$C$DW$690	.dwtag  DW_TAG_variable
	.dwattr $C$DW$690, DW_AT_name("n0661_")
	.dwattr $C$DW$690, DW_AT_TI_symbol_name("n0661_")
	.dwattr $C$DW$690, DW_AT_type(*$C$DW$T$10)
	.dwattr $C$DW$690, DW_AT_location[DW_OP_breg13 3728]

$C$DW$691	.dwtag  DW_TAG_variable
	.dwattr $C$DW$691, DW_AT_name("n0662_")
	.dwattr $C$DW$691, DW_AT_TI_symbol_name("n0662_")
	.dwattr $C$DW$691, DW_AT_type(*$C$DW$T$10)
	.dwattr $C$DW$691, DW_AT_location[DW_OP_breg13 3732]

$C$DW$692	.dwtag  DW_TAG_variable
	.dwattr $C$DW$692, DW_AT_name("n0663_")
	.dwattr $C$DW$692, DW_AT_TI_symbol_name("n0663_")
	.dwattr $C$DW$692, DW_AT_type(*$C$DW$T$10)
	.dwattr $C$DW$692, DW_AT_location[DW_OP_breg13 3736]

$C$DW$693	.dwtag  DW_TAG_variable
	.dwattr $C$DW$693, DW_AT_name("n0664_")
	.dwattr $C$DW$693, DW_AT_TI_symbol_name("n0664_")
	.dwattr $C$DW$693, DW_AT_type(*$C$DW$T$10)
	.dwattr $C$DW$693, DW_AT_location[DW_OP_breg13 3740]

$C$DW$694	.dwtag  DW_TAG_variable
	.dwattr $C$DW$694, DW_AT_name("n0665_")
	.dwattr $C$DW$694, DW_AT_TI_symbol_name("n0665_")
	.dwattr $C$DW$694, DW_AT_type(*$C$DW$T$10)
	.dwattr $C$DW$694, DW_AT_location[DW_OP_breg13 3744]

$C$DW$695	.dwtag  DW_TAG_variable
	.dwattr $C$DW$695, DW_AT_name("n0666_")
	.dwattr $C$DW$695, DW_AT_TI_symbol_name("n0666_")
	.dwattr $C$DW$695, DW_AT_type(*$C$DW$T$10)
	.dwattr $C$DW$695, DW_AT_location[DW_OP_breg13 3748]

$C$DW$696	.dwtag  DW_TAG_variable
	.dwattr $C$DW$696, DW_AT_name("n0667_")
	.dwattr $C$DW$696, DW_AT_TI_symbol_name("n0667_")
	.dwattr $C$DW$696, DW_AT_type(*$C$DW$T$10)
	.dwattr $C$DW$696, DW_AT_location[DW_OP_breg13 3752]

$C$DW$697	.dwtag  DW_TAG_variable
	.dwattr $C$DW$697, DW_AT_name("n0668_")
	.dwattr $C$DW$697, DW_AT_TI_symbol_name("n0668_")
	.dwattr $C$DW$697, DW_AT_type(*$C$DW$T$10)
	.dwattr $C$DW$697, DW_AT_location[DW_OP_breg13 3756]

$C$DW$698	.dwtag  DW_TAG_variable
	.dwattr $C$DW$698, DW_AT_name("n0669_")
	.dwattr $C$DW$698, DW_AT_TI_symbol_name("n0669_")
	.dwattr $C$DW$698, DW_AT_type(*$C$DW$T$10)
	.dwattr $C$DW$698, DW_AT_location[DW_OP_breg13 3760]

$C$DW$699	.dwtag  DW_TAG_variable
	.dwattr $C$DW$699, DW_AT_name("n0670_")
	.dwattr $C$DW$699, DW_AT_TI_symbol_name("n0670_")
	.dwattr $C$DW$699, DW_AT_type(*$C$DW$T$10)
	.dwattr $C$DW$699, DW_AT_location[DW_OP_breg13 3764]

$C$DW$700	.dwtag  DW_TAG_variable
	.dwattr $C$DW$700, DW_AT_name("n0671_")
	.dwattr $C$DW$700, DW_AT_TI_symbol_name("n0671_")
	.dwattr $C$DW$700, DW_AT_type(*$C$DW$T$10)
	.dwattr $C$DW$700, DW_AT_location[DW_OP_breg13 3768]

$C$DW$701	.dwtag  DW_TAG_variable
	.dwattr $C$DW$701, DW_AT_name("n0672_")
	.dwattr $C$DW$701, DW_AT_TI_symbol_name("n0672_")
	.dwattr $C$DW$701, DW_AT_type(*$C$DW$T$10)
	.dwattr $C$DW$701, DW_AT_location[DW_OP_breg13 3772]

$C$DW$702	.dwtag  DW_TAG_variable
	.dwattr $C$DW$702, DW_AT_name("n0673_")
	.dwattr $C$DW$702, DW_AT_TI_symbol_name("n0673_")
	.dwattr $C$DW$702, DW_AT_type(*$C$DW$T$10)
	.dwattr $C$DW$702, DW_AT_location[DW_OP_breg13 3776]

$C$DW$703	.dwtag  DW_TAG_variable
	.dwattr $C$DW$703, DW_AT_name("n0674_")
	.dwattr $C$DW$703, DW_AT_TI_symbol_name("n0674_")
	.dwattr $C$DW$703, DW_AT_type(*$C$DW$T$10)
	.dwattr $C$DW$703, DW_AT_location[DW_OP_breg13 3780]

$C$DW$704	.dwtag  DW_TAG_variable
	.dwattr $C$DW$704, DW_AT_name("n0675_")
	.dwattr $C$DW$704, DW_AT_TI_symbol_name("n0675_")
	.dwattr $C$DW$704, DW_AT_type(*$C$DW$T$10)
	.dwattr $C$DW$704, DW_AT_location[DW_OP_breg13 3784]

$C$DW$705	.dwtag  DW_TAG_variable
	.dwattr $C$DW$705, DW_AT_name("n0676_")
	.dwattr $C$DW$705, DW_AT_TI_symbol_name("n0676_")
	.dwattr $C$DW$705, DW_AT_type(*$C$DW$T$10)
	.dwattr $C$DW$705, DW_AT_location[DW_OP_breg13 3788]

$C$DW$706	.dwtag  DW_TAG_variable
	.dwattr $C$DW$706, DW_AT_name("n0677_")
	.dwattr $C$DW$706, DW_AT_TI_symbol_name("n0677_")
	.dwattr $C$DW$706, DW_AT_type(*$C$DW$T$10)
	.dwattr $C$DW$706, DW_AT_location[DW_OP_breg13 3792]

$C$DW$707	.dwtag  DW_TAG_variable
	.dwattr $C$DW$707, DW_AT_name("n0678_")
	.dwattr $C$DW$707, DW_AT_TI_symbol_name("n0678_")
	.dwattr $C$DW$707, DW_AT_type(*$C$DW$T$10)
	.dwattr $C$DW$707, DW_AT_location[DW_OP_breg13 3796]

$C$DW$708	.dwtag  DW_TAG_variable
	.dwattr $C$DW$708, DW_AT_name("n0679_")
	.dwattr $C$DW$708, DW_AT_TI_symbol_name("n0679_")
	.dwattr $C$DW$708, DW_AT_type(*$C$DW$T$10)
	.dwattr $C$DW$708, DW_AT_location[DW_OP_breg13 3800]

$C$DW$709	.dwtag  DW_TAG_variable
	.dwattr $C$DW$709, DW_AT_name("n0680_")
	.dwattr $C$DW$709, DW_AT_TI_symbol_name("n0680_")
	.dwattr $C$DW$709, DW_AT_type(*$C$DW$T$10)
	.dwattr $C$DW$709, DW_AT_location[DW_OP_breg13 3804]

$C$DW$710	.dwtag  DW_TAG_variable
	.dwattr $C$DW$710, DW_AT_name("n0681_")
	.dwattr $C$DW$710, DW_AT_TI_symbol_name("n0681_")
	.dwattr $C$DW$710, DW_AT_type(*$C$DW$T$10)
	.dwattr $C$DW$710, DW_AT_location[DW_OP_breg13 3808]

$C$DW$711	.dwtag  DW_TAG_variable
	.dwattr $C$DW$711, DW_AT_name("n0682_")
	.dwattr $C$DW$711, DW_AT_TI_symbol_name("n0682_")
	.dwattr $C$DW$711, DW_AT_type(*$C$DW$T$10)
	.dwattr $C$DW$711, DW_AT_location[DW_OP_breg13 3812]

$C$DW$712	.dwtag  DW_TAG_variable
	.dwattr $C$DW$712, DW_AT_name("n0683_")
	.dwattr $C$DW$712, DW_AT_TI_symbol_name("n0683_")
	.dwattr $C$DW$712, DW_AT_type(*$C$DW$T$10)
	.dwattr $C$DW$712, DW_AT_location[DW_OP_breg13 3816]

$C$DW$713	.dwtag  DW_TAG_variable
	.dwattr $C$DW$713, DW_AT_name("n0684_")
	.dwattr $C$DW$713, DW_AT_TI_symbol_name("n0684_")
	.dwattr $C$DW$713, DW_AT_type(*$C$DW$T$10)
	.dwattr $C$DW$713, DW_AT_location[DW_OP_breg13 3820]

$C$DW$714	.dwtag  DW_TAG_variable
	.dwattr $C$DW$714, DW_AT_name("n0685_")
	.dwattr $C$DW$714, DW_AT_TI_symbol_name("n0685_")
	.dwattr $C$DW$714, DW_AT_type(*$C$DW$T$10)
	.dwattr $C$DW$714, DW_AT_location[DW_OP_breg13 3824]

$C$DW$715	.dwtag  DW_TAG_variable
	.dwattr $C$DW$715, DW_AT_name("n0686_")
	.dwattr $C$DW$715, DW_AT_TI_symbol_name("n0686_")
	.dwattr $C$DW$715, DW_AT_type(*$C$DW$T$10)
	.dwattr $C$DW$715, DW_AT_location[DW_OP_breg13 3828]

$C$DW$716	.dwtag  DW_TAG_variable
	.dwattr $C$DW$716, DW_AT_name("n0687_")
	.dwattr $C$DW$716, DW_AT_TI_symbol_name("n0687_")
	.dwattr $C$DW$716, DW_AT_type(*$C$DW$T$10)
	.dwattr $C$DW$716, DW_AT_location[DW_OP_breg13 3832]

$C$DW$717	.dwtag  DW_TAG_variable
	.dwattr $C$DW$717, DW_AT_name("n0688_")
	.dwattr $C$DW$717, DW_AT_TI_symbol_name("n0688_")
	.dwattr $C$DW$717, DW_AT_type(*$C$DW$T$10)
	.dwattr $C$DW$717, DW_AT_location[DW_OP_breg13 3836]

$C$DW$718	.dwtag  DW_TAG_variable
	.dwattr $C$DW$718, DW_AT_name("n0689_")
	.dwattr $C$DW$718, DW_AT_TI_symbol_name("n0689_")
	.dwattr $C$DW$718, DW_AT_type(*$C$DW$T$10)
	.dwattr $C$DW$718, DW_AT_location[DW_OP_breg13 3840]

$C$DW$719	.dwtag  DW_TAG_variable
	.dwattr $C$DW$719, DW_AT_name("n0690_")
	.dwattr $C$DW$719, DW_AT_TI_symbol_name("n0690_")
	.dwattr $C$DW$719, DW_AT_type(*$C$DW$T$10)
	.dwattr $C$DW$719, DW_AT_location[DW_OP_breg13 3844]

$C$DW$720	.dwtag  DW_TAG_variable
	.dwattr $C$DW$720, DW_AT_name("n0691_")
	.dwattr $C$DW$720, DW_AT_TI_symbol_name("n0691_")
	.dwattr $C$DW$720, DW_AT_type(*$C$DW$T$10)
	.dwattr $C$DW$720, DW_AT_location[DW_OP_breg13 3848]

$C$DW$721	.dwtag  DW_TAG_variable
	.dwattr $C$DW$721, DW_AT_name("n0692_")
	.dwattr $C$DW$721, DW_AT_TI_symbol_name("n0692_")
	.dwattr $C$DW$721, DW_AT_type(*$C$DW$T$10)
	.dwattr $C$DW$721, DW_AT_location[DW_OP_breg13 3852]

$C$DW$722	.dwtag  DW_TAG_variable
	.dwattr $C$DW$722, DW_AT_name("n0693_")
	.dwattr $C$DW$722, DW_AT_TI_symbol_name("n0693_")
	.dwattr $C$DW$722, DW_AT_type(*$C$DW$T$10)
	.dwattr $C$DW$722, DW_AT_location[DW_OP_breg13 3856]

$C$DW$723	.dwtag  DW_TAG_variable
	.dwattr $C$DW$723, DW_AT_name("n0694_")
	.dwattr $C$DW$723, DW_AT_TI_symbol_name("n0694_")
	.dwattr $C$DW$723, DW_AT_type(*$C$DW$T$10)
	.dwattr $C$DW$723, DW_AT_location[DW_OP_breg13 3860]

$C$DW$724	.dwtag  DW_TAG_variable
	.dwattr $C$DW$724, DW_AT_name("n0695_")
	.dwattr $C$DW$724, DW_AT_TI_symbol_name("n0695_")
	.dwattr $C$DW$724, DW_AT_type(*$C$DW$T$10)
	.dwattr $C$DW$724, DW_AT_location[DW_OP_breg13 3864]

$C$DW$725	.dwtag  DW_TAG_variable
	.dwattr $C$DW$725, DW_AT_name("n0696_")
	.dwattr $C$DW$725, DW_AT_TI_symbol_name("n0696_")
	.dwattr $C$DW$725, DW_AT_type(*$C$DW$T$10)
	.dwattr $C$DW$725, DW_AT_location[DW_OP_breg13 3868]

$C$DW$726	.dwtag  DW_TAG_variable
	.dwattr $C$DW$726, DW_AT_name("n0697_")
	.dwattr $C$DW$726, DW_AT_TI_symbol_name("n0697_")
	.dwattr $C$DW$726, DW_AT_type(*$C$DW$T$10)
	.dwattr $C$DW$726, DW_AT_location[DW_OP_breg13 3872]

$C$DW$727	.dwtag  DW_TAG_variable
	.dwattr $C$DW$727, DW_AT_name("n0698_")
	.dwattr $C$DW$727, DW_AT_TI_symbol_name("n0698_")
	.dwattr $C$DW$727, DW_AT_type(*$C$DW$T$10)
	.dwattr $C$DW$727, DW_AT_location[DW_OP_breg13 3876]

$C$DW$728	.dwtag  DW_TAG_variable
	.dwattr $C$DW$728, DW_AT_name("n0699_")
	.dwattr $C$DW$728, DW_AT_TI_symbol_name("n0699_")
	.dwattr $C$DW$728, DW_AT_type(*$C$DW$T$10)
	.dwattr $C$DW$728, DW_AT_location[DW_OP_breg13 3880]

$C$DW$729	.dwtag  DW_TAG_variable
	.dwattr $C$DW$729, DW_AT_name("n0700_")
	.dwattr $C$DW$729, DW_AT_TI_symbol_name("n0700_")
	.dwattr $C$DW$729, DW_AT_type(*$C$DW$T$10)
	.dwattr $C$DW$729, DW_AT_location[DW_OP_breg13 3884]

$C$DW$730	.dwtag  DW_TAG_variable
	.dwattr $C$DW$730, DW_AT_name("n0701_")
	.dwattr $C$DW$730, DW_AT_TI_symbol_name("n0701_")
	.dwattr $C$DW$730, DW_AT_type(*$C$DW$T$10)
	.dwattr $C$DW$730, DW_AT_location[DW_OP_breg13 3888]

$C$DW$731	.dwtag  DW_TAG_variable
	.dwattr $C$DW$731, DW_AT_name("n0702_")
	.dwattr $C$DW$731, DW_AT_TI_symbol_name("n0702_")
	.dwattr $C$DW$731, DW_AT_type(*$C$DW$T$10)
	.dwattr $C$DW$731, DW_AT_location[DW_OP_breg13 3892]

$C$DW$732	.dwtag  DW_TAG_variable
	.dwattr $C$DW$732, DW_AT_name("n0703_")
	.dwattr $C$DW$732, DW_AT_TI_symbol_name("n0703_")
	.dwattr $C$DW$732, DW_AT_type(*$C$DW$T$10)
	.dwattr $C$DW$732, DW_AT_location[DW_OP_breg13 3896]

$C$DW$733	.dwtag  DW_TAG_variable
	.dwattr $C$DW$733, DW_AT_name("n0704_")
	.dwattr $C$DW$733, DW_AT_TI_symbol_name("n0704_")
	.dwattr $C$DW$733, DW_AT_type(*$C$DW$T$10)
	.dwattr $C$DW$733, DW_AT_location[DW_OP_breg13 3900]

$C$DW$734	.dwtag  DW_TAG_variable
	.dwattr $C$DW$734, DW_AT_name("n0705_")
	.dwattr $C$DW$734, DW_AT_TI_symbol_name("n0705_")
	.dwattr $C$DW$734, DW_AT_type(*$C$DW$T$10)
	.dwattr $C$DW$734, DW_AT_location[DW_OP_breg13 3904]

$C$DW$735	.dwtag  DW_TAG_variable
	.dwattr $C$DW$735, DW_AT_name("n0706_")
	.dwattr $C$DW$735, DW_AT_TI_symbol_name("n0706_")
	.dwattr $C$DW$735, DW_AT_type(*$C$DW$T$10)
	.dwattr $C$DW$735, DW_AT_location[DW_OP_breg13 3908]

$C$DW$736	.dwtag  DW_TAG_variable
	.dwattr $C$DW$736, DW_AT_name("n0707_")
	.dwattr $C$DW$736, DW_AT_TI_symbol_name("n0707_")
	.dwattr $C$DW$736, DW_AT_type(*$C$DW$T$10)
	.dwattr $C$DW$736, DW_AT_location[DW_OP_breg13 3912]

$C$DW$737	.dwtag  DW_TAG_variable
	.dwattr $C$DW$737, DW_AT_name("n0708_")
	.dwattr $C$DW$737, DW_AT_TI_symbol_name("n0708_")
	.dwattr $C$DW$737, DW_AT_type(*$C$DW$T$10)
	.dwattr $C$DW$737, DW_AT_location[DW_OP_breg13 3916]

$C$DW$738	.dwtag  DW_TAG_variable
	.dwattr $C$DW$738, DW_AT_name("n0709_")
	.dwattr $C$DW$738, DW_AT_TI_symbol_name("n0709_")
	.dwattr $C$DW$738, DW_AT_type(*$C$DW$T$10)
	.dwattr $C$DW$738, DW_AT_location[DW_OP_breg13 3920]

$C$DW$739	.dwtag  DW_TAG_variable
	.dwattr $C$DW$739, DW_AT_name("n0710_")
	.dwattr $C$DW$739, DW_AT_TI_symbol_name("n0710_")
	.dwattr $C$DW$739, DW_AT_type(*$C$DW$T$10)
	.dwattr $C$DW$739, DW_AT_location[DW_OP_breg13 3924]

$C$DW$740	.dwtag  DW_TAG_variable
	.dwattr $C$DW$740, DW_AT_name("n0711_")
	.dwattr $C$DW$740, DW_AT_TI_symbol_name("n0711_")
	.dwattr $C$DW$740, DW_AT_type(*$C$DW$T$10)
	.dwattr $C$DW$740, DW_AT_location[DW_OP_breg13 3928]

$C$DW$741	.dwtag  DW_TAG_variable
	.dwattr $C$DW$741, DW_AT_name("n0712_")
	.dwattr $C$DW$741, DW_AT_TI_symbol_name("n0712_")
	.dwattr $C$DW$741, DW_AT_type(*$C$DW$T$10)
	.dwattr $C$DW$741, DW_AT_location[DW_OP_breg13 3932]

$C$DW$742	.dwtag  DW_TAG_variable
	.dwattr $C$DW$742, DW_AT_name("n0713_")
	.dwattr $C$DW$742, DW_AT_TI_symbol_name("n0713_")
	.dwattr $C$DW$742, DW_AT_type(*$C$DW$T$10)
	.dwattr $C$DW$742, DW_AT_location[DW_OP_breg13 3936]

$C$DW$743	.dwtag  DW_TAG_variable
	.dwattr $C$DW$743, DW_AT_name("n0714_")
	.dwattr $C$DW$743, DW_AT_TI_symbol_name("n0714_")
	.dwattr $C$DW$743, DW_AT_type(*$C$DW$T$10)
	.dwattr $C$DW$743, DW_AT_location[DW_OP_breg13 3940]

$C$DW$744	.dwtag  DW_TAG_variable
	.dwattr $C$DW$744, DW_AT_name("n0715_")
	.dwattr $C$DW$744, DW_AT_TI_symbol_name("n0715_")
	.dwattr $C$DW$744, DW_AT_type(*$C$DW$T$10)
	.dwattr $C$DW$744, DW_AT_location[DW_OP_breg13 3944]

$C$DW$745	.dwtag  DW_TAG_variable
	.dwattr $C$DW$745, DW_AT_name("n0716_")
	.dwattr $C$DW$745, DW_AT_TI_symbol_name("n0716_")
	.dwattr $C$DW$745, DW_AT_type(*$C$DW$T$10)
	.dwattr $C$DW$745, DW_AT_location[DW_OP_breg13 3948]

$C$DW$746	.dwtag  DW_TAG_variable
	.dwattr $C$DW$746, DW_AT_name("n0717_")
	.dwattr $C$DW$746, DW_AT_TI_symbol_name("n0717_")
	.dwattr $C$DW$746, DW_AT_type(*$C$DW$T$10)
	.dwattr $C$DW$746, DW_AT_location[DW_OP_breg13 3952]

$C$DW$747	.dwtag  DW_TAG_variable
	.dwattr $C$DW$747, DW_AT_name("n0718_")
	.dwattr $C$DW$747, DW_AT_TI_symbol_name("n0718_")
	.dwattr $C$DW$747, DW_AT_type(*$C$DW$T$10)
	.dwattr $C$DW$747, DW_AT_location[DW_OP_breg13 3956]

$C$DW$748	.dwtag  DW_TAG_variable
	.dwattr $C$DW$748, DW_AT_name("n0719_")
	.dwattr $C$DW$748, DW_AT_TI_symbol_name("n0719_")
	.dwattr $C$DW$748, DW_AT_type(*$C$DW$T$10)
	.dwattr $C$DW$748, DW_AT_location[DW_OP_breg13 3960]

$C$DW$749	.dwtag  DW_TAG_variable
	.dwattr $C$DW$749, DW_AT_name("n0720_")
	.dwattr $C$DW$749, DW_AT_TI_symbol_name("n0720_")
	.dwattr $C$DW$749, DW_AT_type(*$C$DW$T$10)
	.dwattr $C$DW$749, DW_AT_location[DW_OP_breg13 3964]

$C$DW$750	.dwtag  DW_TAG_variable
	.dwattr $C$DW$750, DW_AT_name("n0721_")
	.dwattr $C$DW$750, DW_AT_TI_symbol_name("n0721_")
	.dwattr $C$DW$750, DW_AT_type(*$C$DW$T$10)
	.dwattr $C$DW$750, DW_AT_location[DW_OP_breg13 3968]

$C$DW$751	.dwtag  DW_TAG_variable
	.dwattr $C$DW$751, DW_AT_name("n0722_")
	.dwattr $C$DW$751, DW_AT_TI_symbol_name("n0722_")
	.dwattr $C$DW$751, DW_AT_type(*$C$DW$T$10)
	.dwattr $C$DW$751, DW_AT_location[DW_OP_breg13 3972]

$C$DW$752	.dwtag  DW_TAG_variable
	.dwattr $C$DW$752, DW_AT_name("n0723_")
	.dwattr $C$DW$752, DW_AT_TI_symbol_name("n0723_")
	.dwattr $C$DW$752, DW_AT_type(*$C$DW$T$10)
	.dwattr $C$DW$752, DW_AT_location[DW_OP_breg13 3976]

$C$DW$753	.dwtag  DW_TAG_variable
	.dwattr $C$DW$753, DW_AT_name("n0724_")
	.dwattr $C$DW$753, DW_AT_TI_symbol_name("n0724_")
	.dwattr $C$DW$753, DW_AT_type(*$C$DW$T$10)
	.dwattr $C$DW$753, DW_AT_location[DW_OP_breg13 3980]

$C$DW$754	.dwtag  DW_TAG_variable
	.dwattr $C$DW$754, DW_AT_name("n0725_")
	.dwattr $C$DW$754, DW_AT_TI_symbol_name("n0725_")
	.dwattr $C$DW$754, DW_AT_type(*$C$DW$T$10)
	.dwattr $C$DW$754, DW_AT_location[DW_OP_breg13 3984]

$C$DW$755	.dwtag  DW_TAG_variable
	.dwattr $C$DW$755, DW_AT_name("n0726_")
	.dwattr $C$DW$755, DW_AT_TI_symbol_name("n0726_")
	.dwattr $C$DW$755, DW_AT_type(*$C$DW$T$10)
	.dwattr $C$DW$755, DW_AT_location[DW_OP_breg13 3988]

$C$DW$756	.dwtag  DW_TAG_variable
	.dwattr $C$DW$756, DW_AT_name("n0727_")
	.dwattr $C$DW$756, DW_AT_TI_symbol_name("n0727_")
	.dwattr $C$DW$756, DW_AT_type(*$C$DW$T$10)
	.dwattr $C$DW$756, DW_AT_location[DW_OP_breg13 3992]

$C$DW$757	.dwtag  DW_TAG_variable
	.dwattr $C$DW$757, DW_AT_name("n0728_")
	.dwattr $C$DW$757, DW_AT_TI_symbol_name("n0728_")
	.dwattr $C$DW$757, DW_AT_type(*$C$DW$T$10)
	.dwattr $C$DW$757, DW_AT_location[DW_OP_breg13 3996]

$C$DW$758	.dwtag  DW_TAG_variable
	.dwattr $C$DW$758, DW_AT_name("n0729_")
	.dwattr $C$DW$758, DW_AT_TI_symbol_name("n0729_")
	.dwattr $C$DW$758, DW_AT_type(*$C$DW$T$10)
	.dwattr $C$DW$758, DW_AT_location[DW_OP_breg13 4000]

$C$DW$759	.dwtag  DW_TAG_variable
	.dwattr $C$DW$759, DW_AT_name("n0730_")
	.dwattr $C$DW$759, DW_AT_TI_symbol_name("n0730_")
	.dwattr $C$DW$759, DW_AT_type(*$C$DW$T$10)
	.dwattr $C$DW$759, DW_AT_location[DW_OP_breg13 4004]

$C$DW$760	.dwtag  DW_TAG_variable
	.dwattr $C$DW$760, DW_AT_name("n0731_")
	.dwattr $C$DW$760, DW_AT_TI_symbol_name("n0731_")
	.dwattr $C$DW$760, DW_AT_type(*$C$DW$T$10)
	.dwattr $C$DW$760, DW_AT_location[DW_OP_breg13 4008]

$C$DW$761	.dwtag  DW_TAG_variable
	.dwattr $C$DW$761, DW_AT_name("n0732_")
	.dwattr $C$DW$761, DW_AT_TI_symbol_name("n0732_")
	.dwattr $C$DW$761, DW_AT_type(*$C$DW$T$10)
	.dwattr $C$DW$761, DW_AT_location[DW_OP_breg13 4012]

$C$DW$762	.dwtag  DW_TAG_variable
	.dwattr $C$DW$762, DW_AT_name("n0733_")
	.dwattr $C$DW$762, DW_AT_TI_symbol_name("n0733_")
	.dwattr $C$DW$762, DW_AT_type(*$C$DW$T$10)
	.dwattr $C$DW$762, DW_AT_location[DW_OP_breg13 4016]

$C$DW$763	.dwtag  DW_TAG_variable
	.dwattr $C$DW$763, DW_AT_name("n0734_")
	.dwattr $C$DW$763, DW_AT_TI_symbol_name("n0734_")
	.dwattr $C$DW$763, DW_AT_type(*$C$DW$T$10)
	.dwattr $C$DW$763, DW_AT_location[DW_OP_breg13 4020]

$C$DW$764	.dwtag  DW_TAG_variable
	.dwattr $C$DW$764, DW_AT_name("n0735_")
	.dwattr $C$DW$764, DW_AT_TI_symbol_name("n0735_")
	.dwattr $C$DW$764, DW_AT_type(*$C$DW$T$10)
	.dwattr $C$DW$764, DW_AT_location[DW_OP_breg13 4024]

$C$DW$765	.dwtag  DW_TAG_variable
	.dwattr $C$DW$765, DW_AT_name("n0736_")
	.dwattr $C$DW$765, DW_AT_TI_symbol_name("n0736_")
	.dwattr $C$DW$765, DW_AT_type(*$C$DW$T$10)
	.dwattr $C$DW$765, DW_AT_location[DW_OP_breg13 4028]

$C$DW$766	.dwtag  DW_TAG_variable
	.dwattr $C$DW$766, DW_AT_name("n0737_")
	.dwattr $C$DW$766, DW_AT_TI_symbol_name("n0737_")
	.dwattr $C$DW$766, DW_AT_type(*$C$DW$T$10)
	.dwattr $C$DW$766, DW_AT_location[DW_OP_breg13 4032]

$C$DW$767	.dwtag  DW_TAG_variable
	.dwattr $C$DW$767, DW_AT_name("n0738_")
	.dwattr $C$DW$767, DW_AT_TI_symbol_name("n0738_")
	.dwattr $C$DW$767, DW_AT_type(*$C$DW$T$10)
	.dwattr $C$DW$767, DW_AT_location[DW_OP_breg13 4036]

$C$DW$768	.dwtag  DW_TAG_variable
	.dwattr $C$DW$768, DW_AT_name("n0739_")
	.dwattr $C$DW$768, DW_AT_TI_symbol_name("n0739_")
	.dwattr $C$DW$768, DW_AT_type(*$C$DW$T$10)
	.dwattr $C$DW$768, DW_AT_location[DW_OP_breg13 4040]

$C$DW$769	.dwtag  DW_TAG_variable
	.dwattr $C$DW$769, DW_AT_name("n0740_")
	.dwattr $C$DW$769, DW_AT_TI_symbol_name("n0740_")
	.dwattr $C$DW$769, DW_AT_type(*$C$DW$T$10)
	.dwattr $C$DW$769, DW_AT_location[DW_OP_breg13 4044]

$C$DW$770	.dwtag  DW_TAG_variable
	.dwattr $C$DW$770, DW_AT_name("n0741_")
	.dwattr $C$DW$770, DW_AT_TI_symbol_name("n0741_")
	.dwattr $C$DW$770, DW_AT_type(*$C$DW$T$10)
	.dwattr $C$DW$770, DW_AT_location[DW_OP_breg13 4048]

$C$DW$771	.dwtag  DW_TAG_variable
	.dwattr $C$DW$771, DW_AT_name("n0742_")
	.dwattr $C$DW$771, DW_AT_TI_symbol_name("n0742_")
	.dwattr $C$DW$771, DW_AT_type(*$C$DW$T$10)
	.dwattr $C$DW$771, DW_AT_location[DW_OP_breg13 4052]

$C$DW$772	.dwtag  DW_TAG_variable
	.dwattr $C$DW$772, DW_AT_name("n0743_")
	.dwattr $C$DW$772, DW_AT_TI_symbol_name("n0743_")
	.dwattr $C$DW$772, DW_AT_type(*$C$DW$T$10)
	.dwattr $C$DW$772, DW_AT_location[DW_OP_breg13 4056]

$C$DW$773	.dwtag  DW_TAG_variable
	.dwattr $C$DW$773, DW_AT_name("n0744_")
	.dwattr $C$DW$773, DW_AT_TI_symbol_name("n0744_")
	.dwattr $C$DW$773, DW_AT_type(*$C$DW$T$10)
	.dwattr $C$DW$773, DW_AT_location[DW_OP_breg13 4060]

$C$DW$774	.dwtag  DW_TAG_variable
	.dwattr $C$DW$774, DW_AT_name("n0745_")
	.dwattr $C$DW$774, DW_AT_TI_symbol_name("n0745_")
	.dwattr $C$DW$774, DW_AT_type(*$C$DW$T$10)
	.dwattr $C$DW$774, DW_AT_location[DW_OP_breg13 4064]

$C$DW$775	.dwtag  DW_TAG_variable
	.dwattr $C$DW$775, DW_AT_name("n0746_")
	.dwattr $C$DW$775, DW_AT_TI_symbol_name("n0746_")
	.dwattr $C$DW$775, DW_AT_type(*$C$DW$T$10)
	.dwattr $C$DW$775, DW_AT_location[DW_OP_breg13 4068]

$C$DW$776	.dwtag  DW_TAG_variable
	.dwattr $C$DW$776, DW_AT_name("n0747_")
	.dwattr $C$DW$776, DW_AT_TI_symbol_name("n0747_")
	.dwattr $C$DW$776, DW_AT_type(*$C$DW$T$10)
	.dwattr $C$DW$776, DW_AT_location[DW_OP_breg13 4072]

$C$DW$777	.dwtag  DW_TAG_variable
	.dwattr $C$DW$777, DW_AT_name("n0748_")
	.dwattr $C$DW$777, DW_AT_TI_symbol_name("n0748_")
	.dwattr $C$DW$777, DW_AT_type(*$C$DW$T$10)
	.dwattr $C$DW$777, DW_AT_location[DW_OP_breg13 4076]

$C$DW$778	.dwtag  DW_TAG_variable
	.dwattr $C$DW$778, DW_AT_name("n0749_")
	.dwattr $C$DW$778, DW_AT_TI_symbol_name("n0749_")
	.dwattr $C$DW$778, DW_AT_type(*$C$DW$T$10)
	.dwattr $C$DW$778, DW_AT_location[DW_OP_breg13 4080]

$C$DW$779	.dwtag  DW_TAG_variable
	.dwattr $C$DW$779, DW_AT_name("n0750_")
	.dwattr $C$DW$779, DW_AT_TI_symbol_name("n0750_")
	.dwattr $C$DW$779, DW_AT_type(*$C$DW$T$10)
	.dwattr $C$DW$779, DW_AT_location[DW_OP_breg13 4084]

$C$DW$780	.dwtag  DW_TAG_variable
	.dwattr $C$DW$780, DW_AT_name("n0751_")
	.dwattr $C$DW$780, DW_AT_TI_symbol_name("n0751_")
	.dwattr $C$DW$780, DW_AT_type(*$C$DW$T$10)
	.dwattr $C$DW$780, DW_AT_location[DW_OP_breg13 4088]

$C$DW$781	.dwtag  DW_TAG_variable
	.dwattr $C$DW$781, DW_AT_name("n0752_")
	.dwattr $C$DW$781, DW_AT_TI_symbol_name("n0752_")
	.dwattr $C$DW$781, DW_AT_type(*$C$DW$T$10)
	.dwattr $C$DW$781, DW_AT_location[DW_OP_breg13 4092]

$C$DW$782	.dwtag  DW_TAG_variable
	.dwattr $C$DW$782, DW_AT_name("n0753_")
	.dwattr $C$DW$782, DW_AT_TI_symbol_name("n0753_")
	.dwattr $C$DW$782, DW_AT_type(*$C$DW$T$10)
	.dwattr $C$DW$782, DW_AT_location[DW_OP_breg13 4096]

$C$DW$783	.dwtag  DW_TAG_variable
	.dwattr $C$DW$783, DW_AT_name("n0754_")
	.dwattr $C$DW$783, DW_AT_TI_symbol_name("n0754_")
	.dwattr $C$DW$783, DW_AT_type(*$C$DW$T$10)
	.dwattr $C$DW$783, DW_AT_location[DW_OP_breg13 4100]

$C$DW$784	.dwtag  DW_TAG_variable
	.dwattr $C$DW$784, DW_AT_name("n0755_")
	.dwattr $C$DW$784, DW_AT_TI_symbol_name("n0755_")
	.dwattr $C$DW$784, DW_AT_type(*$C$DW$T$10)
	.dwattr $C$DW$784, DW_AT_location[DW_OP_breg13 4104]

$C$DW$785	.dwtag  DW_TAG_variable
	.dwattr $C$DW$785, DW_AT_name("n0756_")
	.dwattr $C$DW$785, DW_AT_TI_symbol_name("n0756_")
	.dwattr $C$DW$785, DW_AT_type(*$C$DW$T$10)
	.dwattr $C$DW$785, DW_AT_location[DW_OP_breg13 4108]

$C$DW$786	.dwtag  DW_TAG_variable
	.dwattr $C$DW$786, DW_AT_name("n0757_")
	.dwattr $C$DW$786, DW_AT_TI_symbol_name("n0757_")
	.dwattr $C$DW$786, DW_AT_type(*$C$DW$T$10)
	.dwattr $C$DW$786, DW_AT_location[DW_OP_breg13 4112]

$C$DW$787	.dwtag  DW_TAG_variable
	.dwattr $C$DW$787, DW_AT_name("n0758_")
	.dwattr $C$DW$787, DW_AT_TI_symbol_name("n0758_")
	.dwattr $C$DW$787, DW_AT_type(*$C$DW$T$10)
	.dwattr $C$DW$787, DW_AT_location[DW_OP_breg13 4116]

$C$DW$788	.dwtag  DW_TAG_variable
	.dwattr $C$DW$788, DW_AT_name("n0759_")
	.dwattr $C$DW$788, DW_AT_TI_symbol_name("n0759_")
	.dwattr $C$DW$788, DW_AT_type(*$C$DW$T$10)
	.dwattr $C$DW$788, DW_AT_location[DW_OP_breg13 4120]

$C$DW$789	.dwtag  DW_TAG_variable
	.dwattr $C$DW$789, DW_AT_name("n0760_")
	.dwattr $C$DW$789, DW_AT_TI_symbol_name("n0760_")
	.dwattr $C$DW$789, DW_AT_type(*$C$DW$T$10)
	.dwattr $C$DW$789, DW_AT_location[DW_OP_breg13 4124]

$C$DW$790	.dwtag  DW_TAG_variable
	.dwattr $C$DW$790, DW_AT_name("n0761_")
	.dwattr $C$DW$790, DW_AT_TI_symbol_name("n0761_")
	.dwattr $C$DW$790, DW_AT_type(*$C$DW$T$10)
	.dwattr $C$DW$790, DW_AT_location[DW_OP_breg13 4128]

$C$DW$791	.dwtag  DW_TAG_variable
	.dwattr $C$DW$791, DW_AT_name("n0762_")
	.dwattr $C$DW$791, DW_AT_TI_symbol_name("n0762_")
	.dwattr $C$DW$791, DW_AT_type(*$C$DW$T$10)
	.dwattr $C$DW$791, DW_AT_location[DW_OP_breg13 4132]

$C$DW$792	.dwtag  DW_TAG_variable
	.dwattr $C$DW$792, DW_AT_name("n0763_")
	.dwattr $C$DW$792, DW_AT_TI_symbol_name("n0763_")
	.dwattr $C$DW$792, DW_AT_type(*$C$DW$T$10)
	.dwattr $C$DW$792, DW_AT_location[DW_OP_breg13 4136]

$C$DW$793	.dwtag  DW_TAG_variable
	.dwattr $C$DW$793, DW_AT_name("n0764_")
	.dwattr $C$DW$793, DW_AT_TI_symbol_name("n0764_")
	.dwattr $C$DW$793, DW_AT_type(*$C$DW$T$10)
	.dwattr $C$DW$793, DW_AT_location[DW_OP_breg13 4140]

$C$DW$794	.dwtag  DW_TAG_variable
	.dwattr $C$DW$794, DW_AT_name("n0765_")
	.dwattr $C$DW$794, DW_AT_TI_symbol_name("n0765_")
	.dwattr $C$DW$794, DW_AT_type(*$C$DW$T$10)
	.dwattr $C$DW$794, DW_AT_location[DW_OP_breg13 4144]

$C$DW$795	.dwtag  DW_TAG_variable
	.dwattr $C$DW$795, DW_AT_name("n0766_")
	.dwattr $C$DW$795, DW_AT_TI_symbol_name("n0766_")
	.dwattr $C$DW$795, DW_AT_type(*$C$DW$T$10)
	.dwattr $C$DW$795, DW_AT_location[DW_OP_breg13 4148]

$C$DW$796	.dwtag  DW_TAG_variable
	.dwattr $C$DW$796, DW_AT_name("n0767_")
	.dwattr $C$DW$796, DW_AT_TI_symbol_name("n0767_")
	.dwattr $C$DW$796, DW_AT_type(*$C$DW$T$10)
	.dwattr $C$DW$796, DW_AT_location[DW_OP_breg13 4152]

$C$DW$797	.dwtag  DW_TAG_variable
	.dwattr $C$DW$797, DW_AT_name("n0768_")
	.dwattr $C$DW$797, DW_AT_TI_symbol_name("n0768_")
	.dwattr $C$DW$797, DW_AT_type(*$C$DW$T$10)
	.dwattr $C$DW$797, DW_AT_location[DW_OP_breg13 4156]

$C$DW$798	.dwtag  DW_TAG_variable
	.dwattr $C$DW$798, DW_AT_name("n0769_")
	.dwattr $C$DW$798, DW_AT_TI_symbol_name("n0769_")
	.dwattr $C$DW$798, DW_AT_type(*$C$DW$T$10)
	.dwattr $C$DW$798, DW_AT_location[DW_OP_breg13 4160]

$C$DW$799	.dwtag  DW_TAG_variable
	.dwattr $C$DW$799, DW_AT_name("n0770_")
	.dwattr $C$DW$799, DW_AT_TI_symbol_name("n0770_")
	.dwattr $C$DW$799, DW_AT_type(*$C$DW$T$10)
	.dwattr $C$DW$799, DW_AT_location[DW_OP_breg13 4164]

$C$DW$800	.dwtag  DW_TAG_variable
	.dwattr $C$DW$800, DW_AT_name("n0771_")
	.dwattr $C$DW$800, DW_AT_TI_symbol_name("n0771_")
	.dwattr $C$DW$800, DW_AT_type(*$C$DW$T$10)
	.dwattr $C$DW$800, DW_AT_location[DW_OP_breg13 4168]

$C$DW$801	.dwtag  DW_TAG_variable
	.dwattr $C$DW$801, DW_AT_name("n0772_")
	.dwattr $C$DW$801, DW_AT_TI_symbol_name("n0772_")
	.dwattr $C$DW$801, DW_AT_type(*$C$DW$T$10)
	.dwattr $C$DW$801, DW_AT_location[DW_OP_breg13 4172]

$C$DW$802	.dwtag  DW_TAG_variable
	.dwattr $C$DW$802, DW_AT_name("n0773_")
	.dwattr $C$DW$802, DW_AT_TI_symbol_name("n0773_")
	.dwattr $C$DW$802, DW_AT_type(*$C$DW$T$10)
	.dwattr $C$DW$802, DW_AT_location[DW_OP_breg13 4176]

$C$DW$803	.dwtag  DW_TAG_variable
	.dwattr $C$DW$803, DW_AT_name("n0774_")
	.dwattr $C$DW$803, DW_AT_TI_symbol_name("n0774_")
	.dwattr $C$DW$803, DW_AT_type(*$C$DW$T$10)
	.dwattr $C$DW$803, DW_AT_location[DW_OP_breg13 4180]

$C$DW$804	.dwtag  DW_TAG_variable
	.dwattr $C$DW$804, DW_AT_name("n0775_")
	.dwattr $C$DW$804, DW_AT_TI_symbol_name("n0775_")
	.dwattr $C$DW$804, DW_AT_type(*$C$DW$T$10)
	.dwattr $C$DW$804, DW_AT_location[DW_OP_breg13 4184]

$C$DW$805	.dwtag  DW_TAG_variable
	.dwattr $C$DW$805, DW_AT_name("n0776_")
	.dwattr $C$DW$805, DW_AT_TI_symbol_name("n0776_")
	.dwattr $C$DW$805, DW_AT_type(*$C$DW$T$10)
	.dwattr $C$DW$805, DW_AT_location[DW_OP_breg13 4188]

$C$DW$806	.dwtag  DW_TAG_variable
	.dwattr $C$DW$806, DW_AT_name("n0777_")
	.dwattr $C$DW$806, DW_AT_TI_symbol_name("n0777_")
	.dwattr $C$DW$806, DW_AT_type(*$C$DW$T$10)
	.dwattr $C$DW$806, DW_AT_location[DW_OP_breg13 4192]

$C$DW$807	.dwtag  DW_TAG_variable
	.dwattr $C$DW$807, DW_AT_name("n0778_")
	.dwattr $C$DW$807, DW_AT_TI_symbol_name("n0778_")
	.dwattr $C$DW$807, DW_AT_type(*$C$DW$T$10)
	.dwattr $C$DW$807, DW_AT_location[DW_OP_breg13 4196]

$C$DW$808	.dwtag  DW_TAG_variable
	.dwattr $C$DW$808, DW_AT_name("n0779_")
	.dwattr $C$DW$808, DW_AT_TI_symbol_name("n0779_")
	.dwattr $C$DW$808, DW_AT_type(*$C$DW$T$10)
	.dwattr $C$DW$808, DW_AT_location[DW_OP_breg13 4200]

$C$DW$809	.dwtag  DW_TAG_variable
	.dwattr $C$DW$809, DW_AT_name("n0780_")
	.dwattr $C$DW$809, DW_AT_TI_symbol_name("n0780_")
	.dwattr $C$DW$809, DW_AT_type(*$C$DW$T$10)
	.dwattr $C$DW$809, DW_AT_location[DW_OP_breg13 4204]

$C$DW$810	.dwtag  DW_TAG_variable
	.dwattr $C$DW$810, DW_AT_name("n0781_")
	.dwattr $C$DW$810, DW_AT_TI_symbol_name("n0781_")
	.dwattr $C$DW$810, DW_AT_type(*$C$DW$T$10)
	.dwattr $C$DW$810, DW_AT_location[DW_OP_breg13 4208]

$C$DW$811	.dwtag  DW_TAG_variable
	.dwattr $C$DW$811, DW_AT_name("n0782_")
	.dwattr $C$DW$811, DW_AT_TI_symbol_name("n0782_")
	.dwattr $C$DW$811, DW_AT_type(*$C$DW$T$10)
	.dwattr $C$DW$811, DW_AT_location[DW_OP_breg13 4212]

$C$DW$812	.dwtag  DW_TAG_variable
	.dwattr $C$DW$812, DW_AT_name("n0783_")
	.dwattr $C$DW$812, DW_AT_TI_symbol_name("n0783_")
	.dwattr $C$DW$812, DW_AT_type(*$C$DW$T$10)
	.dwattr $C$DW$812, DW_AT_location[DW_OP_breg13 4216]

$C$DW$813	.dwtag  DW_TAG_variable
	.dwattr $C$DW$813, DW_AT_name("n0784_")
	.dwattr $C$DW$813, DW_AT_TI_symbol_name("n0784_")
	.dwattr $C$DW$813, DW_AT_type(*$C$DW$T$10)
	.dwattr $C$DW$813, DW_AT_location[DW_OP_breg13 4220]

$C$DW$814	.dwtag  DW_TAG_variable
	.dwattr $C$DW$814, DW_AT_name("n0785_")
	.dwattr $C$DW$814, DW_AT_TI_symbol_name("n0785_")
	.dwattr $C$DW$814, DW_AT_type(*$C$DW$T$10)
	.dwattr $C$DW$814, DW_AT_location[DW_OP_breg13 4224]

$C$DW$815	.dwtag  DW_TAG_variable
	.dwattr $C$DW$815, DW_AT_name("n0786_")
	.dwattr $C$DW$815, DW_AT_TI_symbol_name("n0786_")
	.dwattr $C$DW$815, DW_AT_type(*$C$DW$T$10)
	.dwattr $C$DW$815, DW_AT_location[DW_OP_breg13 4228]

$C$DW$816	.dwtag  DW_TAG_variable
	.dwattr $C$DW$816, DW_AT_name("n0787_")
	.dwattr $C$DW$816, DW_AT_TI_symbol_name("n0787_")
	.dwattr $C$DW$816, DW_AT_type(*$C$DW$T$10)
	.dwattr $C$DW$816, DW_AT_location[DW_OP_breg13 4232]

$C$DW$817	.dwtag  DW_TAG_variable
	.dwattr $C$DW$817, DW_AT_name("n0788_")
	.dwattr $C$DW$817, DW_AT_TI_symbol_name("n0788_")
	.dwattr $C$DW$817, DW_AT_type(*$C$DW$T$10)
	.dwattr $C$DW$817, DW_AT_location[DW_OP_breg13 4236]

$C$DW$818	.dwtag  DW_TAG_variable
	.dwattr $C$DW$818, DW_AT_name("n0789_")
	.dwattr $C$DW$818, DW_AT_TI_symbol_name("n0789_")
	.dwattr $C$DW$818, DW_AT_type(*$C$DW$T$10)
	.dwattr $C$DW$818, DW_AT_location[DW_OP_breg13 4240]

$C$DW$819	.dwtag  DW_TAG_variable
	.dwattr $C$DW$819, DW_AT_name("n0790_")
	.dwattr $C$DW$819, DW_AT_TI_symbol_name("n0790_")
	.dwattr $C$DW$819, DW_AT_type(*$C$DW$T$10)
	.dwattr $C$DW$819, DW_AT_location[DW_OP_breg13 4244]

$C$DW$820	.dwtag  DW_TAG_variable
	.dwattr $C$DW$820, DW_AT_name("n0791_")
	.dwattr $C$DW$820, DW_AT_TI_symbol_name("n0791_")
	.dwattr $C$DW$820, DW_AT_type(*$C$DW$T$10)
	.dwattr $C$DW$820, DW_AT_location[DW_OP_breg13 4248]

$C$DW$821	.dwtag  DW_TAG_variable
	.dwattr $C$DW$821, DW_AT_name("n0792_")
	.dwattr $C$DW$821, DW_AT_TI_symbol_name("n0792_")
	.dwattr $C$DW$821, DW_AT_type(*$C$DW$T$10)
	.dwattr $C$DW$821, DW_AT_location[DW_OP_breg13 4252]

$C$DW$822	.dwtag  DW_TAG_variable
	.dwattr $C$DW$822, DW_AT_name("n0793_")
	.dwattr $C$DW$822, DW_AT_TI_symbol_name("n0793_")
	.dwattr $C$DW$822, DW_AT_type(*$C$DW$T$10)
	.dwattr $C$DW$822, DW_AT_location[DW_OP_breg13 4256]

$C$DW$823	.dwtag  DW_TAG_variable
	.dwattr $C$DW$823, DW_AT_name("n0794_")
	.dwattr $C$DW$823, DW_AT_TI_symbol_name("n0794_")
	.dwattr $C$DW$823, DW_AT_type(*$C$DW$T$10)
	.dwattr $C$DW$823, DW_AT_location[DW_OP_breg13 4260]

$C$DW$824	.dwtag  DW_TAG_variable
	.dwattr $C$DW$824, DW_AT_name("n0795_")
	.dwattr $C$DW$824, DW_AT_TI_symbol_name("n0795_")
	.dwattr $C$DW$824, DW_AT_type(*$C$DW$T$10)
	.dwattr $C$DW$824, DW_AT_location[DW_OP_breg13 4264]

$C$DW$825	.dwtag  DW_TAG_variable
	.dwattr $C$DW$825, DW_AT_name("n0796_")
	.dwattr $C$DW$825, DW_AT_TI_symbol_name("n0796_")
	.dwattr $C$DW$825, DW_AT_type(*$C$DW$T$10)
	.dwattr $C$DW$825, DW_AT_location[DW_OP_breg13 4268]

$C$DW$826	.dwtag  DW_TAG_variable
	.dwattr $C$DW$826, DW_AT_name("n0797_")
	.dwattr $C$DW$826, DW_AT_TI_symbol_name("n0797_")
	.dwattr $C$DW$826, DW_AT_type(*$C$DW$T$10)
	.dwattr $C$DW$826, DW_AT_location[DW_OP_breg13 4272]

$C$DW$827	.dwtag  DW_TAG_variable
	.dwattr $C$DW$827, DW_AT_name("n0798_")
	.dwattr $C$DW$827, DW_AT_TI_symbol_name("n0798_")
	.dwattr $C$DW$827, DW_AT_type(*$C$DW$T$10)
	.dwattr $C$DW$827, DW_AT_location[DW_OP_breg13 4276]

$C$DW$828	.dwtag  DW_TAG_variable
	.dwattr $C$DW$828, DW_AT_name("n0799_")
	.dwattr $C$DW$828, DW_AT_TI_symbol_name("n0799_")
	.dwattr $C$DW$828, DW_AT_type(*$C$DW$T$10)
	.dwattr $C$DW$828, DW_AT_location[DW_OP_breg13 4280]

$C$DW$829	.dwtag  DW_TAG_variable
	.dwattr $C$DW$829, DW_AT_name("n0800_")
	.dwattr $C$DW$829, DW_AT_TI_symbol_name("n0800_")
	.dwattr $C$DW$829, DW_AT_type(*$C$DW$T$10)
	.dwattr $C$DW$829, DW_AT_location[DW_OP_breg13 4284]

$C$DW$830	.dwtag  DW_TAG_variable
	.dwattr $C$DW$830, DW_AT_name("n0801_")
	.dwattr $C$DW$830, DW_AT_TI_symbol_name("n0801_")
	.dwattr $C$DW$830, DW_AT_type(*$C$DW$T$10)
	.dwattr $C$DW$830, DW_AT_location[DW_OP_breg13 4288]

$C$DW$831	.dwtag  DW_TAG_variable
	.dwattr $C$DW$831, DW_AT_name("n0802_")
	.dwattr $C$DW$831, DW_AT_TI_symbol_name("n0802_")
	.dwattr $C$DW$831, DW_AT_type(*$C$DW$T$10)
	.dwattr $C$DW$831, DW_AT_location[DW_OP_breg13 4292]

$C$DW$832	.dwtag  DW_TAG_variable
	.dwattr $C$DW$832, DW_AT_name("n0803_")
	.dwattr $C$DW$832, DW_AT_TI_symbol_name("n0803_")
	.dwattr $C$DW$832, DW_AT_type(*$C$DW$T$10)
	.dwattr $C$DW$832, DW_AT_location[DW_OP_breg13 4296]

$C$DW$833	.dwtag  DW_TAG_variable
	.dwattr $C$DW$833, DW_AT_name("n0804_")
	.dwattr $C$DW$833, DW_AT_TI_symbol_name("n0804_")
	.dwattr $C$DW$833, DW_AT_type(*$C$DW$T$10)
	.dwattr $C$DW$833, DW_AT_location[DW_OP_breg13 4300]

$C$DW$834	.dwtag  DW_TAG_variable
	.dwattr $C$DW$834, DW_AT_name("n0805_")
	.dwattr $C$DW$834, DW_AT_TI_symbol_name("n0805_")
	.dwattr $C$DW$834, DW_AT_type(*$C$DW$T$10)
	.dwattr $C$DW$834, DW_AT_location[DW_OP_breg13 4304]

$C$DW$835	.dwtag  DW_TAG_variable
	.dwattr $C$DW$835, DW_AT_name("n0806_")
	.dwattr $C$DW$835, DW_AT_TI_symbol_name("n0806_")
	.dwattr $C$DW$835, DW_AT_type(*$C$DW$T$10)
	.dwattr $C$DW$835, DW_AT_location[DW_OP_breg13 4308]

$C$DW$836	.dwtag  DW_TAG_variable
	.dwattr $C$DW$836, DW_AT_name("n0807_")
	.dwattr $C$DW$836, DW_AT_TI_symbol_name("n0807_")
	.dwattr $C$DW$836, DW_AT_type(*$C$DW$T$10)
	.dwattr $C$DW$836, DW_AT_location[DW_OP_breg13 4312]

$C$DW$837	.dwtag  DW_TAG_variable
	.dwattr $C$DW$837, DW_AT_name("n0808_")
	.dwattr $C$DW$837, DW_AT_TI_symbol_name("n0808_")
	.dwattr $C$DW$837, DW_AT_type(*$C$DW$T$10)
	.dwattr $C$DW$837, DW_AT_location[DW_OP_breg13 4316]

$C$DW$838	.dwtag  DW_TAG_variable
	.dwattr $C$DW$838, DW_AT_name("n0809_")
	.dwattr $C$DW$838, DW_AT_TI_symbol_name("n0809_")
	.dwattr $C$DW$838, DW_AT_type(*$C$DW$T$10)
	.dwattr $C$DW$838, DW_AT_location[DW_OP_breg13 4320]

$C$DW$839	.dwtag  DW_TAG_variable
	.dwattr $C$DW$839, DW_AT_name("n0810_")
	.dwattr $C$DW$839, DW_AT_TI_symbol_name("n0810_")
	.dwattr $C$DW$839, DW_AT_type(*$C$DW$T$10)
	.dwattr $C$DW$839, DW_AT_location[DW_OP_breg13 4324]

$C$DW$840	.dwtag  DW_TAG_variable
	.dwattr $C$DW$840, DW_AT_name("n0811_")
	.dwattr $C$DW$840, DW_AT_TI_symbol_name("n0811_")
	.dwattr $C$DW$840, DW_AT_type(*$C$DW$T$10)
	.dwattr $C$DW$840, DW_AT_location[DW_OP_breg13 4328]

$C$DW$841	.dwtag  DW_TAG_variable
	.dwattr $C$DW$841, DW_AT_name("n0812_")
	.dwattr $C$DW$841, DW_AT_TI_symbol_name("n0812_")
	.dwattr $C$DW$841, DW_AT_type(*$C$DW$T$10)
	.dwattr $C$DW$841, DW_AT_location[DW_OP_breg13 4332]

$C$DW$842	.dwtag  DW_TAG_variable
	.dwattr $C$DW$842, DW_AT_name("n0813_")
	.dwattr $C$DW$842, DW_AT_TI_symbol_name("n0813_")
	.dwattr $C$DW$842, DW_AT_type(*$C$DW$T$10)
	.dwattr $C$DW$842, DW_AT_location[DW_OP_breg13 4336]

$C$DW$843	.dwtag  DW_TAG_variable
	.dwattr $C$DW$843, DW_AT_name("n0814_")
	.dwattr $C$DW$843, DW_AT_TI_symbol_name("n0814_")
	.dwattr $C$DW$843, DW_AT_type(*$C$DW$T$10)
	.dwattr $C$DW$843, DW_AT_location[DW_OP_breg13 4340]

$C$DW$844	.dwtag  DW_TAG_variable
	.dwattr $C$DW$844, DW_AT_name("n0815_")
	.dwattr $C$DW$844, DW_AT_TI_symbol_name("n0815_")
	.dwattr $C$DW$844, DW_AT_type(*$C$DW$T$10)
	.dwattr $C$DW$844, DW_AT_location[DW_OP_breg13 4344]

$C$DW$845	.dwtag  DW_TAG_variable
	.dwattr $C$DW$845, DW_AT_name("n0816_")
	.dwattr $C$DW$845, DW_AT_TI_symbol_name("n0816_")
	.dwattr $C$DW$845, DW_AT_type(*$C$DW$T$10)
	.dwattr $C$DW$845, DW_AT_location[DW_OP_breg13 4348]

$C$DW$846	.dwtag  DW_TAG_variable
	.dwattr $C$DW$846, DW_AT_name("n0817_")
	.dwattr $C$DW$846, DW_AT_TI_symbol_name("n0817_")
	.dwattr $C$DW$846, DW_AT_type(*$C$DW$T$10)
	.dwattr $C$DW$846, DW_AT_location[DW_OP_breg13 4352]

$C$DW$847	.dwtag  DW_TAG_variable
	.dwattr $C$DW$847, DW_AT_name("n0818_")
	.dwattr $C$DW$847, DW_AT_TI_symbol_name("n0818_")
	.dwattr $C$DW$847, DW_AT_type(*$C$DW$T$10)
	.dwattr $C$DW$847, DW_AT_location[DW_OP_breg13 4356]

$C$DW$848	.dwtag  DW_TAG_variable
	.dwattr $C$DW$848, DW_AT_name("n0819_")
	.dwattr $C$DW$848, DW_AT_TI_symbol_name("n0819_")
	.dwattr $C$DW$848, DW_AT_type(*$C$DW$T$10)
	.dwattr $C$DW$848, DW_AT_location[DW_OP_breg13 4360]

$C$DW$849	.dwtag  DW_TAG_variable
	.dwattr $C$DW$849, DW_AT_name("n0820_")
	.dwattr $C$DW$849, DW_AT_TI_symbol_name("n0820_")
	.dwattr $C$DW$849, DW_AT_type(*$C$DW$T$10)
	.dwattr $C$DW$849, DW_AT_location[DW_OP_breg13 4364]

$C$DW$850	.dwtag  DW_TAG_variable
	.dwattr $C$DW$850, DW_AT_name("n0821_")
	.dwattr $C$DW$850, DW_AT_TI_symbol_name("n0821_")
	.dwattr $C$DW$850, DW_AT_type(*$C$DW$T$10)
	.dwattr $C$DW$850, DW_AT_location[DW_OP_breg13 4368]

$C$DW$851	.dwtag  DW_TAG_variable
	.dwattr $C$DW$851, DW_AT_name("n0822_")
	.dwattr $C$DW$851, DW_AT_TI_symbol_name("n0822_")
	.dwattr $C$DW$851, DW_AT_type(*$C$DW$T$10)
	.dwattr $C$DW$851, DW_AT_location[DW_OP_breg13 4372]

$C$DW$852	.dwtag  DW_TAG_variable
	.dwattr $C$DW$852, DW_AT_name("n0823_")
	.dwattr $C$DW$852, DW_AT_TI_symbol_name("n0823_")
	.dwattr $C$DW$852, DW_AT_type(*$C$DW$T$10)
	.dwattr $C$DW$852, DW_AT_location[DW_OP_breg13 4376]

$C$DW$853	.dwtag  DW_TAG_variable
	.dwattr $C$DW$853, DW_AT_name("n0824_")
	.dwattr $C$DW$853, DW_AT_TI_symbol_name("n0824_")
	.dwattr $C$DW$853, DW_AT_type(*$C$DW$T$10)
	.dwattr $C$DW$853, DW_AT_location[DW_OP_breg13 4380]

$C$DW$854	.dwtag  DW_TAG_variable
	.dwattr $C$DW$854, DW_AT_name("n0825_")
	.dwattr $C$DW$854, DW_AT_TI_symbol_name("n0825_")
	.dwattr $C$DW$854, DW_AT_type(*$C$DW$T$10)
	.dwattr $C$DW$854, DW_AT_location[DW_OP_breg13 4384]

$C$DW$855	.dwtag  DW_TAG_variable
	.dwattr $C$DW$855, DW_AT_name("n0826_")
	.dwattr $C$DW$855, DW_AT_TI_symbol_name("n0826_")
	.dwattr $C$DW$855, DW_AT_type(*$C$DW$T$10)
	.dwattr $C$DW$855, DW_AT_location[DW_OP_breg13 4388]

$C$DW$856	.dwtag  DW_TAG_variable
	.dwattr $C$DW$856, DW_AT_name("n0827_")
	.dwattr $C$DW$856, DW_AT_TI_symbol_name("n0827_")
	.dwattr $C$DW$856, DW_AT_type(*$C$DW$T$10)
	.dwattr $C$DW$856, DW_AT_location[DW_OP_breg13 4392]

$C$DW$857	.dwtag  DW_TAG_variable
	.dwattr $C$DW$857, DW_AT_name("n0828_")
	.dwattr $C$DW$857, DW_AT_TI_symbol_name("n0828_")
	.dwattr $C$DW$857, DW_AT_type(*$C$DW$T$10)
	.dwattr $C$DW$857, DW_AT_location[DW_OP_breg13 4396]

$C$DW$858	.dwtag  DW_TAG_variable
	.dwattr $C$DW$858, DW_AT_name("n0829_")
	.dwattr $C$DW$858, DW_AT_TI_symbol_name("n0829_")
	.dwattr $C$DW$858, DW_AT_type(*$C$DW$T$10)
	.dwattr $C$DW$858, DW_AT_location[DW_OP_breg13 4400]

$C$DW$859	.dwtag  DW_TAG_variable
	.dwattr $C$DW$859, DW_AT_name("n0830_")
	.dwattr $C$DW$859, DW_AT_TI_symbol_name("n0830_")
	.dwattr $C$DW$859, DW_AT_type(*$C$DW$T$10)
	.dwattr $C$DW$859, DW_AT_location[DW_OP_breg13 4404]

$C$DW$860	.dwtag  DW_TAG_variable
	.dwattr $C$DW$860, DW_AT_name("n0831_")
	.dwattr $C$DW$860, DW_AT_TI_symbol_name("n0831_")
	.dwattr $C$DW$860, DW_AT_type(*$C$DW$T$10)
	.dwattr $C$DW$860, DW_AT_location[DW_OP_breg13 4408]

$C$DW$861	.dwtag  DW_TAG_variable
	.dwattr $C$DW$861, DW_AT_name("n0832_")
	.dwattr $C$DW$861, DW_AT_TI_symbol_name("n0832_")
	.dwattr $C$DW$861, DW_AT_type(*$C$DW$T$10)
	.dwattr $C$DW$861, DW_AT_location[DW_OP_breg13 4412]

$C$DW$862	.dwtag  DW_TAG_variable
	.dwattr $C$DW$862, DW_AT_name("n0833_")
	.dwattr $C$DW$862, DW_AT_TI_symbol_name("n0833_")
	.dwattr $C$DW$862, DW_AT_type(*$C$DW$T$10)
	.dwattr $C$DW$862, DW_AT_location[DW_OP_breg13 4416]

$C$DW$863	.dwtag  DW_TAG_variable
	.dwattr $C$DW$863, DW_AT_name("n0834_")
	.dwattr $C$DW$863, DW_AT_TI_symbol_name("n0834_")
	.dwattr $C$DW$863, DW_AT_type(*$C$DW$T$10)
	.dwattr $C$DW$863, DW_AT_location[DW_OP_breg13 4420]

$C$DW$864	.dwtag  DW_TAG_variable
	.dwattr $C$DW$864, DW_AT_name("n0835_")
	.dwattr $C$DW$864, DW_AT_TI_symbol_name("n0835_")
	.dwattr $C$DW$864, DW_AT_type(*$C$DW$T$10)
	.dwattr $C$DW$864, DW_AT_location[DW_OP_breg13 4424]

$C$DW$865	.dwtag  DW_TAG_variable
	.dwattr $C$DW$865, DW_AT_name("n0836_")
	.dwattr $C$DW$865, DW_AT_TI_symbol_name("n0836_")
	.dwattr $C$DW$865, DW_AT_type(*$C$DW$T$10)
	.dwattr $C$DW$865, DW_AT_location[DW_OP_breg13 4428]

$C$DW$866	.dwtag  DW_TAG_variable
	.dwattr $C$DW$866, DW_AT_name("n0837_")
	.dwattr $C$DW$866, DW_AT_TI_symbol_name("n0837_")
	.dwattr $C$DW$866, DW_AT_type(*$C$DW$T$10)
	.dwattr $C$DW$866, DW_AT_location[DW_OP_breg13 4432]

$C$DW$867	.dwtag  DW_TAG_variable
	.dwattr $C$DW$867, DW_AT_name("n0838_")
	.dwattr $C$DW$867, DW_AT_TI_symbol_name("n0838_")
	.dwattr $C$DW$867, DW_AT_type(*$C$DW$T$10)
	.dwattr $C$DW$867, DW_AT_location[DW_OP_breg13 4436]

$C$DW$868	.dwtag  DW_TAG_variable
	.dwattr $C$DW$868, DW_AT_name("n0839_")
	.dwattr $C$DW$868, DW_AT_TI_symbol_name("n0839_")
	.dwattr $C$DW$868, DW_AT_type(*$C$DW$T$10)
	.dwattr $C$DW$868, DW_AT_location[DW_OP_breg13 4440]

$C$DW$869	.dwtag  DW_TAG_variable
	.dwattr $C$DW$869, DW_AT_name("n0840_")
	.dwattr $C$DW$869, DW_AT_TI_symbol_name("n0840_")
	.dwattr $C$DW$869, DW_AT_type(*$C$DW$T$10)
	.dwattr $C$DW$869, DW_AT_location[DW_OP_breg13 4444]

$C$DW$870	.dwtag  DW_TAG_variable
	.dwattr $C$DW$870, DW_AT_name("n0841_")
	.dwattr $C$DW$870, DW_AT_TI_symbol_name("n0841_")
	.dwattr $C$DW$870, DW_AT_type(*$C$DW$T$10)
	.dwattr $C$DW$870, DW_AT_location[DW_OP_breg13 4448]

$C$DW$871	.dwtag  DW_TAG_variable
	.dwattr $C$DW$871, DW_AT_name("n0842_")
	.dwattr $C$DW$871, DW_AT_TI_symbol_name("n0842_")
	.dwattr $C$DW$871, DW_AT_type(*$C$DW$T$10)
	.dwattr $C$DW$871, DW_AT_location[DW_OP_breg13 4452]

$C$DW$872	.dwtag  DW_TAG_variable
	.dwattr $C$DW$872, DW_AT_name("n0843_")
	.dwattr $C$DW$872, DW_AT_TI_symbol_name("n0843_")
	.dwattr $C$DW$872, DW_AT_type(*$C$DW$T$10)
	.dwattr $C$DW$872, DW_AT_location[DW_OP_breg13 4456]

$C$DW$873	.dwtag  DW_TAG_variable
	.dwattr $C$DW$873, DW_AT_name("n0844_")
	.dwattr $C$DW$873, DW_AT_TI_symbol_name("n0844_")
	.dwattr $C$DW$873, DW_AT_type(*$C$DW$T$10)
	.dwattr $C$DW$873, DW_AT_location[DW_OP_breg13 4460]

$C$DW$874	.dwtag  DW_TAG_variable
	.dwattr $C$DW$874, DW_AT_name("n0845_")
	.dwattr $C$DW$874, DW_AT_TI_symbol_name("n0845_")
	.dwattr $C$DW$874, DW_AT_type(*$C$DW$T$10)
	.dwattr $C$DW$874, DW_AT_location[DW_OP_breg13 4464]

$C$DW$875	.dwtag  DW_TAG_variable
	.dwattr $C$DW$875, DW_AT_name("n0846_")
	.dwattr $C$DW$875, DW_AT_TI_symbol_name("n0846_")
	.dwattr $C$DW$875, DW_AT_type(*$C$DW$T$10)
	.dwattr $C$DW$875, DW_AT_location[DW_OP_breg13 4468]

$C$DW$876	.dwtag  DW_TAG_variable
	.dwattr $C$DW$876, DW_AT_name("n0847_")
	.dwattr $C$DW$876, DW_AT_TI_symbol_name("n0847_")
	.dwattr $C$DW$876, DW_AT_type(*$C$DW$T$10)
	.dwattr $C$DW$876, DW_AT_location[DW_OP_breg13 4472]

$C$DW$877	.dwtag  DW_TAG_variable
	.dwattr $C$DW$877, DW_AT_name("n0848_")
	.dwattr $C$DW$877, DW_AT_TI_symbol_name("n0848_")
	.dwattr $C$DW$877, DW_AT_type(*$C$DW$T$10)
	.dwattr $C$DW$877, DW_AT_location[DW_OP_breg13 4476]

$C$DW$878	.dwtag  DW_TAG_variable
	.dwattr $C$DW$878, DW_AT_name("n0849_")
	.dwattr $C$DW$878, DW_AT_TI_symbol_name("n0849_")
	.dwattr $C$DW$878, DW_AT_type(*$C$DW$T$10)
	.dwattr $C$DW$878, DW_AT_location[DW_OP_breg13 4480]

$C$DW$879	.dwtag  DW_TAG_variable
	.dwattr $C$DW$879, DW_AT_name("n0850_")
	.dwattr $C$DW$879, DW_AT_TI_symbol_name("n0850_")
	.dwattr $C$DW$879, DW_AT_type(*$C$DW$T$10)
	.dwattr $C$DW$879, DW_AT_location[DW_OP_breg13 4484]

$C$DW$880	.dwtag  DW_TAG_variable
	.dwattr $C$DW$880, DW_AT_name("n0851_")
	.dwattr $C$DW$880, DW_AT_TI_symbol_name("n0851_")
	.dwattr $C$DW$880, DW_AT_type(*$C$DW$T$10)
	.dwattr $C$DW$880, DW_AT_location[DW_OP_breg13 4488]

$C$DW$881	.dwtag  DW_TAG_variable
	.dwattr $C$DW$881, DW_AT_name("n0852_")
	.dwattr $C$DW$881, DW_AT_TI_symbol_name("n0852_")
	.dwattr $C$DW$881, DW_AT_type(*$C$DW$T$10)
	.dwattr $C$DW$881, DW_AT_location[DW_OP_breg13 4492]

$C$DW$882	.dwtag  DW_TAG_variable
	.dwattr $C$DW$882, DW_AT_name("n0853_")
	.dwattr $C$DW$882, DW_AT_TI_symbol_name("n0853_")
	.dwattr $C$DW$882, DW_AT_type(*$C$DW$T$10)
	.dwattr $C$DW$882, DW_AT_location[DW_OP_breg13 4496]

$C$DW$883	.dwtag  DW_TAG_variable
	.dwattr $C$DW$883, DW_AT_name("n0854_")
	.dwattr $C$DW$883, DW_AT_TI_symbol_name("n0854_")
	.dwattr $C$DW$883, DW_AT_type(*$C$DW$T$10)
	.dwattr $C$DW$883, DW_AT_location[DW_OP_breg13 4500]

$C$DW$884	.dwtag  DW_TAG_variable
	.dwattr $C$DW$884, DW_AT_name("n0855_")
	.dwattr $C$DW$884, DW_AT_TI_symbol_name("n0855_")
	.dwattr $C$DW$884, DW_AT_type(*$C$DW$T$10)
	.dwattr $C$DW$884, DW_AT_location[DW_OP_breg13 4504]

$C$DW$885	.dwtag  DW_TAG_variable
	.dwattr $C$DW$885, DW_AT_name("n0856_")
	.dwattr $C$DW$885, DW_AT_TI_symbol_name("n0856_")
	.dwattr $C$DW$885, DW_AT_type(*$C$DW$T$10)
	.dwattr $C$DW$885, DW_AT_location[DW_OP_breg13 4508]

$C$DW$886	.dwtag  DW_TAG_variable
	.dwattr $C$DW$886, DW_AT_name("n0857_")
	.dwattr $C$DW$886, DW_AT_TI_symbol_name("n0857_")
	.dwattr $C$DW$886, DW_AT_type(*$C$DW$T$10)
	.dwattr $C$DW$886, DW_AT_location[DW_OP_breg13 4512]

$C$DW$887	.dwtag  DW_TAG_variable
	.dwattr $C$DW$887, DW_AT_name("n0858_")
	.dwattr $C$DW$887, DW_AT_TI_symbol_name("n0858_")
	.dwattr $C$DW$887, DW_AT_type(*$C$DW$T$10)
	.dwattr $C$DW$887, DW_AT_location[DW_OP_breg13 4516]

$C$DW$888	.dwtag  DW_TAG_variable
	.dwattr $C$DW$888, DW_AT_name("n0859_")
	.dwattr $C$DW$888, DW_AT_TI_symbol_name("n0859_")
	.dwattr $C$DW$888, DW_AT_type(*$C$DW$T$10)
	.dwattr $C$DW$888, DW_AT_location[DW_OP_breg13 4520]

$C$DW$889	.dwtag  DW_TAG_variable
	.dwattr $C$DW$889, DW_AT_name("n0860_")
	.dwattr $C$DW$889, DW_AT_TI_symbol_name("n0860_")
	.dwattr $C$DW$889, DW_AT_type(*$C$DW$T$10)
	.dwattr $C$DW$889, DW_AT_location[DW_OP_breg13 4524]

$C$DW$890	.dwtag  DW_TAG_variable
	.dwattr $C$DW$890, DW_AT_name("n0861_")
	.dwattr $C$DW$890, DW_AT_TI_symbol_name("n0861_")
	.dwattr $C$DW$890, DW_AT_type(*$C$DW$T$10)
	.dwattr $C$DW$890, DW_AT_location[DW_OP_breg13 4528]

$C$DW$891	.dwtag  DW_TAG_variable
	.dwattr $C$DW$891, DW_AT_name("n0862_")
	.dwattr $C$DW$891, DW_AT_TI_symbol_name("n0862_")
	.dwattr $C$DW$891, DW_AT_type(*$C$DW$T$10)
	.dwattr $C$DW$891, DW_AT_location[DW_OP_breg13 4532]

$C$DW$892	.dwtag  DW_TAG_variable
	.dwattr $C$DW$892, DW_AT_name("n0863_")
	.dwattr $C$DW$892, DW_AT_TI_symbol_name("n0863_")
	.dwattr $C$DW$892, DW_AT_type(*$C$DW$T$10)
	.dwattr $C$DW$892, DW_AT_location[DW_OP_breg13 4536]

$C$DW$893	.dwtag  DW_TAG_variable
	.dwattr $C$DW$893, DW_AT_name("n0864_")
	.dwattr $C$DW$893, DW_AT_TI_symbol_name("n0864_")
	.dwattr $C$DW$893, DW_AT_type(*$C$DW$T$10)
	.dwattr $C$DW$893, DW_AT_location[DW_OP_breg13 4540]

$C$DW$894	.dwtag  DW_TAG_variable
	.dwattr $C$DW$894, DW_AT_name("n0865_")
	.dwattr $C$DW$894, DW_AT_TI_symbol_name("n0865_")
	.dwattr $C$DW$894, DW_AT_type(*$C$DW$T$10)
	.dwattr $C$DW$894, DW_AT_location[DW_OP_breg13 4544]

$C$DW$895	.dwtag  DW_TAG_variable
	.dwattr $C$DW$895, DW_AT_name("n0866_")
	.dwattr $C$DW$895, DW_AT_TI_symbol_name("n0866_")
	.dwattr $C$DW$895, DW_AT_type(*$C$DW$T$10)
	.dwattr $C$DW$895, DW_AT_location[DW_OP_breg13 4548]

$C$DW$896	.dwtag  DW_TAG_variable
	.dwattr $C$DW$896, DW_AT_name("n0867_")
	.dwattr $C$DW$896, DW_AT_TI_symbol_name("n0867_")
	.dwattr $C$DW$896, DW_AT_type(*$C$DW$T$10)
	.dwattr $C$DW$896, DW_AT_location[DW_OP_breg13 4552]

$C$DW$897	.dwtag  DW_TAG_variable
	.dwattr $C$DW$897, DW_AT_name("n0868_")
	.dwattr $C$DW$897, DW_AT_TI_symbol_name("n0868_")
	.dwattr $C$DW$897, DW_AT_type(*$C$DW$T$10)
	.dwattr $C$DW$897, DW_AT_location[DW_OP_breg13 4556]

$C$DW$898	.dwtag  DW_TAG_variable
	.dwattr $C$DW$898, DW_AT_name("n0869_")
	.dwattr $C$DW$898, DW_AT_TI_symbol_name("n0869_")
	.dwattr $C$DW$898, DW_AT_type(*$C$DW$T$10)
	.dwattr $C$DW$898, DW_AT_location[DW_OP_breg13 4560]

$C$DW$899	.dwtag  DW_TAG_variable
	.dwattr $C$DW$899, DW_AT_name("n0870_")
	.dwattr $C$DW$899, DW_AT_TI_symbol_name("n0870_")
	.dwattr $C$DW$899, DW_AT_type(*$C$DW$T$10)
	.dwattr $C$DW$899, DW_AT_location[DW_OP_breg13 4564]

$C$DW$900	.dwtag  DW_TAG_variable
	.dwattr $C$DW$900, DW_AT_name("n0871_")
	.dwattr $C$DW$900, DW_AT_TI_symbol_name("n0871_")
	.dwattr $C$DW$900, DW_AT_type(*$C$DW$T$10)
	.dwattr $C$DW$900, DW_AT_location[DW_OP_breg13 4568]

$C$DW$901	.dwtag  DW_TAG_variable
	.dwattr $C$DW$901, DW_AT_name("n0872_")
	.dwattr $C$DW$901, DW_AT_TI_symbol_name("n0872_")
	.dwattr $C$DW$901, DW_AT_type(*$C$DW$T$10)
	.dwattr $C$DW$901, DW_AT_location[DW_OP_breg13 4572]

$C$DW$902	.dwtag  DW_TAG_variable
	.dwattr $C$DW$902, DW_AT_name("n0873_")
	.dwattr $C$DW$902, DW_AT_TI_symbol_name("n0873_")
	.dwattr $C$DW$902, DW_AT_type(*$C$DW$T$10)
	.dwattr $C$DW$902, DW_AT_location[DW_OP_breg13 4576]

$C$DW$903	.dwtag  DW_TAG_variable
	.dwattr $C$DW$903, DW_AT_name("n0874_")
	.dwattr $C$DW$903, DW_AT_TI_symbol_name("n0874_")
	.dwattr $C$DW$903, DW_AT_type(*$C$DW$T$10)
	.dwattr $C$DW$903, DW_AT_location[DW_OP_breg13 4580]

$C$DW$904	.dwtag  DW_TAG_variable
	.dwattr $C$DW$904, DW_AT_name("n0875_")
	.dwattr $C$DW$904, DW_AT_TI_symbol_name("n0875_")
	.dwattr $C$DW$904, DW_AT_type(*$C$DW$T$10)
	.dwattr $C$DW$904, DW_AT_location[DW_OP_breg13 4584]

$C$DW$905	.dwtag  DW_TAG_variable
	.dwattr $C$DW$905, DW_AT_name("n0876_")
	.dwattr $C$DW$905, DW_AT_TI_symbol_name("n0876_")
	.dwattr $C$DW$905, DW_AT_type(*$C$DW$T$10)
	.dwattr $C$DW$905, DW_AT_location[DW_OP_breg13 4588]

$C$DW$906	.dwtag  DW_TAG_variable
	.dwattr $C$DW$906, DW_AT_name("n0877_")
	.dwattr $C$DW$906, DW_AT_TI_symbol_name("n0877_")
	.dwattr $C$DW$906, DW_AT_type(*$C$DW$T$10)
	.dwattr $C$DW$906, DW_AT_location[DW_OP_breg13 4592]

$C$DW$907	.dwtag  DW_TAG_variable
	.dwattr $C$DW$907, DW_AT_name("n0878_")
	.dwattr $C$DW$907, DW_AT_TI_symbol_name("n0878_")
	.dwattr $C$DW$907, DW_AT_type(*$C$DW$T$10)
	.dwattr $C$DW$907, DW_AT_location[DW_OP_breg13 4596]

$C$DW$908	.dwtag  DW_TAG_variable
	.dwattr $C$DW$908, DW_AT_name("n0879_")
	.dwattr $C$DW$908, DW_AT_TI_symbol_name("n0879_")
	.dwattr $C$DW$908, DW_AT_type(*$C$DW$T$10)
	.dwattr $C$DW$908, DW_AT_location[DW_OP_breg13 4600]

$C$DW$909	.dwtag  DW_TAG_variable
	.dwattr $C$DW$909, DW_AT_name("n0880_")
	.dwattr $C$DW$909, DW_AT_TI_symbol_name("n0880_")
	.dwattr $C$DW$909, DW_AT_type(*$C$DW$T$10)
	.dwattr $C$DW$909, DW_AT_location[DW_OP_breg13 4604]

$C$DW$910	.dwtag  DW_TAG_variable
	.dwattr $C$DW$910, DW_AT_name("n0881_")
	.dwattr $C$DW$910, DW_AT_TI_symbol_name("n0881_")
	.dwattr $C$DW$910, DW_AT_type(*$C$DW$T$10)
	.dwattr $C$DW$910, DW_AT_location[DW_OP_breg13 4608]

$C$DW$911	.dwtag  DW_TAG_variable
	.dwattr $C$DW$911, DW_AT_name("n0882_")
	.dwattr $C$DW$911, DW_AT_TI_symbol_name("n0882_")
	.dwattr $C$DW$911, DW_AT_type(*$C$DW$T$10)
	.dwattr $C$DW$911, DW_AT_location[DW_OP_breg13 4612]

$C$DW$912	.dwtag  DW_TAG_variable
	.dwattr $C$DW$912, DW_AT_name("n0883_")
	.dwattr $C$DW$912, DW_AT_TI_symbol_name("n0883_")
	.dwattr $C$DW$912, DW_AT_type(*$C$DW$T$10)
	.dwattr $C$DW$912, DW_AT_location[DW_OP_breg13 4616]

$C$DW$913	.dwtag  DW_TAG_variable
	.dwattr $C$DW$913, DW_AT_name("n0884_")
	.dwattr $C$DW$913, DW_AT_TI_symbol_name("n0884_")
	.dwattr $C$DW$913, DW_AT_type(*$C$DW$T$10)
	.dwattr $C$DW$913, DW_AT_location[DW_OP_breg13 4620]

$C$DW$914	.dwtag  DW_TAG_variable
	.dwattr $C$DW$914, DW_AT_name("n0885_")
	.dwattr $C$DW$914, DW_AT_TI_symbol_name("n0885_")
	.dwattr $C$DW$914, DW_AT_type(*$C$DW$T$10)
	.dwattr $C$DW$914, DW_AT_location[DW_OP_breg13 4624]

$C$DW$915	.dwtag  DW_TAG_variable
	.dwattr $C$DW$915, DW_AT_name("n0886_")
	.dwattr $C$DW$915, DW_AT_TI_symbol_name("n0886_")
	.dwattr $C$DW$915, DW_AT_type(*$C$DW$T$10)
	.dwattr $C$DW$915, DW_AT_location[DW_OP_breg13 4628]

$C$DW$916	.dwtag  DW_TAG_variable
	.dwattr $C$DW$916, DW_AT_name("n0887_")
	.dwattr $C$DW$916, DW_AT_TI_symbol_name("n0887_")
	.dwattr $C$DW$916, DW_AT_type(*$C$DW$T$10)
	.dwattr $C$DW$916, DW_AT_location[DW_OP_breg13 4632]

$C$DW$917	.dwtag  DW_TAG_variable
	.dwattr $C$DW$917, DW_AT_name("n0888_")
	.dwattr $C$DW$917, DW_AT_TI_symbol_name("n0888_")
	.dwattr $C$DW$917, DW_AT_type(*$C$DW$T$10)
	.dwattr $C$DW$917, DW_AT_location[DW_OP_breg13 4636]

$C$DW$918	.dwtag  DW_TAG_variable
	.dwattr $C$DW$918, DW_AT_name("n0889_")
	.dwattr $C$DW$918, DW_AT_TI_symbol_name("n0889_")
	.dwattr $C$DW$918, DW_AT_type(*$C$DW$T$10)
	.dwattr $C$DW$918, DW_AT_location[DW_OP_breg13 4640]

$C$DW$919	.dwtag  DW_TAG_variable
	.dwattr $C$DW$919, DW_AT_name("n0890_")
	.dwattr $C$DW$919, DW_AT_TI_symbol_name("n0890_")
	.dwattr $C$DW$919, DW_AT_type(*$C$DW$T$10)
	.dwattr $C$DW$919, DW_AT_location[DW_OP_breg13 4644]

$C$DW$920	.dwtag  DW_TAG_variable
	.dwattr $C$DW$920, DW_AT_name("n0891_")
	.dwattr $C$DW$920, DW_AT_TI_symbol_name("n0891_")
	.dwattr $C$DW$920, DW_AT_type(*$C$DW$T$10)
	.dwattr $C$DW$920, DW_AT_location[DW_OP_breg13 4648]

$C$DW$921	.dwtag  DW_TAG_variable
	.dwattr $C$DW$921, DW_AT_name("n0892_")
	.dwattr $C$DW$921, DW_AT_TI_symbol_name("n0892_")
	.dwattr $C$DW$921, DW_AT_type(*$C$DW$T$10)
	.dwattr $C$DW$921, DW_AT_location[DW_OP_breg13 4652]

$C$DW$922	.dwtag  DW_TAG_variable
	.dwattr $C$DW$922, DW_AT_name("n0893_")
	.dwattr $C$DW$922, DW_AT_TI_symbol_name("n0893_")
	.dwattr $C$DW$922, DW_AT_type(*$C$DW$T$10)
	.dwattr $C$DW$922, DW_AT_location[DW_OP_breg13 4656]

$C$DW$923	.dwtag  DW_TAG_variable
	.dwattr $C$DW$923, DW_AT_name("n0894_")
	.dwattr $C$DW$923, DW_AT_TI_symbol_name("n0894_")
	.dwattr $C$DW$923, DW_AT_type(*$C$DW$T$10)
	.dwattr $C$DW$923, DW_AT_location[DW_OP_breg13 4660]

$C$DW$924	.dwtag  DW_TAG_variable
	.dwattr $C$DW$924, DW_AT_name("n0895_")
	.dwattr $C$DW$924, DW_AT_TI_symbol_name("n0895_")
	.dwattr $C$DW$924, DW_AT_type(*$C$DW$T$10)
	.dwattr $C$DW$924, DW_AT_location[DW_OP_breg13 4664]

$C$DW$925	.dwtag  DW_TAG_variable
	.dwattr $C$DW$925, DW_AT_name("n0896_")
	.dwattr $C$DW$925, DW_AT_TI_symbol_name("n0896_")
	.dwattr $C$DW$925, DW_AT_type(*$C$DW$T$10)
	.dwattr $C$DW$925, DW_AT_location[DW_OP_breg13 4668]

$C$DW$926	.dwtag  DW_TAG_variable
	.dwattr $C$DW$926, DW_AT_name("n0897_")
	.dwattr $C$DW$926, DW_AT_TI_symbol_name("n0897_")
	.dwattr $C$DW$926, DW_AT_type(*$C$DW$T$10)
	.dwattr $C$DW$926, DW_AT_location[DW_OP_breg13 4672]

$C$DW$927	.dwtag  DW_TAG_variable
	.dwattr $C$DW$927, DW_AT_name("n0898_")
	.dwattr $C$DW$927, DW_AT_TI_symbol_name("n0898_")
	.dwattr $C$DW$927, DW_AT_type(*$C$DW$T$10)
	.dwattr $C$DW$927, DW_AT_location[DW_OP_breg13 4676]

$C$DW$928	.dwtag  DW_TAG_variable
	.dwattr $C$DW$928, DW_AT_name("n0899_")
	.dwattr $C$DW$928, DW_AT_TI_symbol_name("n0899_")
	.dwattr $C$DW$928, DW_AT_type(*$C$DW$T$10)
	.dwattr $C$DW$928, DW_AT_location[DW_OP_breg13 4680]

$C$DW$929	.dwtag  DW_TAG_variable
	.dwattr $C$DW$929, DW_AT_name("n0900_")
	.dwattr $C$DW$929, DW_AT_TI_symbol_name("n0900_")
	.dwattr $C$DW$929, DW_AT_type(*$C$DW$T$10)
	.dwattr $C$DW$929, DW_AT_location[DW_OP_breg13 4684]

$C$DW$930	.dwtag  DW_TAG_variable
	.dwattr $C$DW$930, DW_AT_name("n0901_")
	.dwattr $C$DW$930, DW_AT_TI_symbol_name("n0901_")
	.dwattr $C$DW$930, DW_AT_type(*$C$DW$T$10)
	.dwattr $C$DW$930, DW_AT_location[DW_OP_breg13 4688]

$C$DW$931	.dwtag  DW_TAG_variable
	.dwattr $C$DW$931, DW_AT_name("n0902_")
	.dwattr $C$DW$931, DW_AT_TI_symbol_name("n0902_")
	.dwattr $C$DW$931, DW_AT_type(*$C$DW$T$10)
	.dwattr $C$DW$931, DW_AT_location[DW_OP_breg13 4692]

$C$DW$932	.dwtag  DW_TAG_variable
	.dwattr $C$DW$932, DW_AT_name("n0903_")
	.dwattr $C$DW$932, DW_AT_TI_symbol_name("n0903_")
	.dwattr $C$DW$932, DW_AT_type(*$C$DW$T$10)
	.dwattr $C$DW$932, DW_AT_location[DW_OP_breg13 4696]

$C$DW$933	.dwtag  DW_TAG_variable
	.dwattr $C$DW$933, DW_AT_name("n0904_")
	.dwattr $C$DW$933, DW_AT_TI_symbol_name("n0904_")
	.dwattr $C$DW$933, DW_AT_type(*$C$DW$T$10)
	.dwattr $C$DW$933, DW_AT_location[DW_OP_breg13 4700]

$C$DW$934	.dwtag  DW_TAG_variable
	.dwattr $C$DW$934, DW_AT_name("n0905_")
	.dwattr $C$DW$934, DW_AT_TI_symbol_name("n0905_")
	.dwattr $C$DW$934, DW_AT_type(*$C$DW$T$10)
	.dwattr $C$DW$934, DW_AT_location[DW_OP_breg13 4704]

$C$DW$935	.dwtag  DW_TAG_variable
	.dwattr $C$DW$935, DW_AT_name("n0906_")
	.dwattr $C$DW$935, DW_AT_TI_symbol_name("n0906_")
	.dwattr $C$DW$935, DW_AT_type(*$C$DW$T$10)
	.dwattr $C$DW$935, DW_AT_location[DW_OP_breg13 4708]

$C$DW$936	.dwtag  DW_TAG_variable
	.dwattr $C$DW$936, DW_AT_name("n0907_")
	.dwattr $C$DW$936, DW_AT_TI_symbol_name("n0907_")
	.dwattr $C$DW$936, DW_AT_type(*$C$DW$T$10)
	.dwattr $C$DW$936, DW_AT_location[DW_OP_breg13 4712]

$C$DW$937	.dwtag  DW_TAG_variable
	.dwattr $C$DW$937, DW_AT_name("n0908_")
	.dwattr $C$DW$937, DW_AT_TI_symbol_name("n0908_")
	.dwattr $C$DW$937, DW_AT_type(*$C$DW$T$10)
	.dwattr $C$DW$937, DW_AT_location[DW_OP_breg13 4716]

$C$DW$938	.dwtag  DW_TAG_variable
	.dwattr $C$DW$938, DW_AT_name("n0909_")
	.dwattr $C$DW$938, DW_AT_TI_symbol_name("n0909_")
	.dwattr $C$DW$938, DW_AT_type(*$C$DW$T$10)
	.dwattr $C$DW$938, DW_AT_location[DW_OP_breg13 4720]

$C$DW$939	.dwtag  DW_TAG_variable
	.dwattr $C$DW$939, DW_AT_name("n0910_")
	.dwattr $C$DW$939, DW_AT_TI_symbol_name("n0910_")
	.dwattr $C$DW$939, DW_AT_type(*$C$DW$T$10)
	.dwattr $C$DW$939, DW_AT_location[DW_OP_breg13 4724]

$C$DW$940	.dwtag  DW_TAG_variable
	.dwattr $C$DW$940, DW_AT_name("n0911_")
	.dwattr $C$DW$940, DW_AT_TI_symbol_name("n0911_")
	.dwattr $C$DW$940, DW_AT_type(*$C$DW$T$10)
	.dwattr $C$DW$940, DW_AT_location[DW_OP_breg13 4728]

$C$DW$941	.dwtag  DW_TAG_variable
	.dwattr $C$DW$941, DW_AT_name("n0912_")
	.dwattr $C$DW$941, DW_AT_TI_symbol_name("n0912_")
	.dwattr $C$DW$941, DW_AT_type(*$C$DW$T$10)
	.dwattr $C$DW$941, DW_AT_location[DW_OP_breg13 4732]

$C$DW$942	.dwtag  DW_TAG_variable
	.dwattr $C$DW$942, DW_AT_name("n0913_")
	.dwattr $C$DW$942, DW_AT_TI_symbol_name("n0913_")
	.dwattr $C$DW$942, DW_AT_type(*$C$DW$T$10)
	.dwattr $C$DW$942, DW_AT_location[DW_OP_breg13 4736]

$C$DW$943	.dwtag  DW_TAG_variable
	.dwattr $C$DW$943, DW_AT_name("n0914_")
	.dwattr $C$DW$943, DW_AT_TI_symbol_name("n0914_")
	.dwattr $C$DW$943, DW_AT_type(*$C$DW$T$10)
	.dwattr $C$DW$943, DW_AT_location[DW_OP_breg13 4740]

$C$DW$944	.dwtag  DW_TAG_variable
	.dwattr $C$DW$944, DW_AT_name("n0915_")
	.dwattr $C$DW$944, DW_AT_TI_symbol_name("n0915_")
	.dwattr $C$DW$944, DW_AT_type(*$C$DW$T$10)
	.dwattr $C$DW$944, DW_AT_location[DW_OP_breg13 4744]

$C$DW$945	.dwtag  DW_TAG_variable
	.dwattr $C$DW$945, DW_AT_name("n0916_")
	.dwattr $C$DW$945, DW_AT_TI_symbol_name("n0916_")
	.dwattr $C$DW$945, DW_AT_type(*$C$DW$T$10)
	.dwattr $C$DW$945, DW_AT_location[DW_OP_breg13 4748]

$C$DW$946	.dwtag  DW_TAG_variable
	.dwattr $C$DW$946, DW_AT_name("n0917_")
	.dwattr $C$DW$946, DW_AT_TI_symbol_name("n0917_")
	.dwattr $C$DW$946, DW_AT_type(*$C$DW$T$10)
	.dwattr $C$DW$946, DW_AT_location[DW_OP_breg13 4752]

$C$DW$947	.dwtag  DW_TAG_variable
	.dwattr $C$DW$947, DW_AT_name("n0918_")
	.dwattr $C$DW$947, DW_AT_TI_symbol_name("n0918_")
	.dwattr $C$DW$947, DW_AT_type(*$C$DW$T$10)
	.dwattr $C$DW$947, DW_AT_location[DW_OP_breg13 4756]

$C$DW$948	.dwtag  DW_TAG_variable
	.dwattr $C$DW$948, DW_AT_name("n0919_")
	.dwattr $C$DW$948, DW_AT_TI_symbol_name("n0919_")
	.dwattr $C$DW$948, DW_AT_type(*$C$DW$T$10)
	.dwattr $C$DW$948, DW_AT_location[DW_OP_breg13 4760]

$C$DW$949	.dwtag  DW_TAG_variable
	.dwattr $C$DW$949, DW_AT_name("n0920_")
	.dwattr $C$DW$949, DW_AT_TI_symbol_name("n0920_")
	.dwattr $C$DW$949, DW_AT_type(*$C$DW$T$10)
	.dwattr $C$DW$949, DW_AT_location[DW_OP_breg13 4764]

$C$DW$950	.dwtag  DW_TAG_variable
	.dwattr $C$DW$950, DW_AT_name("n0921_")
	.dwattr $C$DW$950, DW_AT_TI_symbol_name("n0921_")
	.dwattr $C$DW$950, DW_AT_type(*$C$DW$T$10)
	.dwattr $C$DW$950, DW_AT_location[DW_OP_breg13 4768]

$C$DW$951	.dwtag  DW_TAG_variable
	.dwattr $C$DW$951, DW_AT_name("n0922_")
	.dwattr $C$DW$951, DW_AT_TI_symbol_name("n0922_")
	.dwattr $C$DW$951, DW_AT_type(*$C$DW$T$10)
	.dwattr $C$DW$951, DW_AT_location[DW_OP_breg13 4772]

$C$DW$952	.dwtag  DW_TAG_variable
	.dwattr $C$DW$952, DW_AT_name("n0923_")
	.dwattr $C$DW$952, DW_AT_TI_symbol_name("n0923_")
	.dwattr $C$DW$952, DW_AT_type(*$C$DW$T$10)
	.dwattr $C$DW$952, DW_AT_location[DW_OP_breg13 4776]

$C$DW$953	.dwtag  DW_TAG_variable
	.dwattr $C$DW$953, DW_AT_name("n0924_")
	.dwattr $C$DW$953, DW_AT_TI_symbol_name("n0924_")
	.dwattr $C$DW$953, DW_AT_type(*$C$DW$T$10)
	.dwattr $C$DW$953, DW_AT_location[DW_OP_breg13 4780]

$C$DW$954	.dwtag  DW_TAG_variable
	.dwattr $C$DW$954, DW_AT_name("n0925_")
	.dwattr $C$DW$954, DW_AT_TI_symbol_name("n0925_")
	.dwattr $C$DW$954, DW_AT_type(*$C$DW$T$10)
	.dwattr $C$DW$954, DW_AT_location[DW_OP_breg13 4784]

$C$DW$955	.dwtag  DW_TAG_variable
	.dwattr $C$DW$955, DW_AT_name("n0926_")
	.dwattr $C$DW$955, DW_AT_TI_symbol_name("n0926_")
	.dwattr $C$DW$955, DW_AT_type(*$C$DW$T$10)
	.dwattr $C$DW$955, DW_AT_location[DW_OP_breg13 4788]

$C$DW$956	.dwtag  DW_TAG_variable
	.dwattr $C$DW$956, DW_AT_name("n0927_")
	.dwattr $C$DW$956, DW_AT_TI_symbol_name("n0927_")
	.dwattr $C$DW$956, DW_AT_type(*$C$DW$T$10)
	.dwattr $C$DW$956, DW_AT_location[DW_OP_breg13 4792]

$C$DW$957	.dwtag  DW_TAG_variable
	.dwattr $C$DW$957, DW_AT_name("n0928_")
	.dwattr $C$DW$957, DW_AT_TI_symbol_name("n0928_")
	.dwattr $C$DW$957, DW_AT_type(*$C$DW$T$10)
	.dwattr $C$DW$957, DW_AT_location[DW_OP_breg13 4796]

$C$DW$958	.dwtag  DW_TAG_variable
	.dwattr $C$DW$958, DW_AT_name("n0929_")
	.dwattr $C$DW$958, DW_AT_TI_symbol_name("n0929_")
	.dwattr $C$DW$958, DW_AT_type(*$C$DW$T$10)
	.dwattr $C$DW$958, DW_AT_location[DW_OP_breg13 4800]

$C$DW$959	.dwtag  DW_TAG_variable
	.dwattr $C$DW$959, DW_AT_name("n0930_")
	.dwattr $C$DW$959, DW_AT_TI_symbol_name("n0930_")
	.dwattr $C$DW$959, DW_AT_type(*$C$DW$T$10)
	.dwattr $C$DW$959, DW_AT_location[DW_OP_breg13 4804]

$C$DW$960	.dwtag  DW_TAG_variable
	.dwattr $C$DW$960, DW_AT_name("n0931_")
	.dwattr $C$DW$960, DW_AT_TI_symbol_name("n0931_")
	.dwattr $C$DW$960, DW_AT_type(*$C$DW$T$10)
	.dwattr $C$DW$960, DW_AT_location[DW_OP_breg13 4808]

$C$DW$961	.dwtag  DW_TAG_variable
	.dwattr $C$DW$961, DW_AT_name("n0932_")
	.dwattr $C$DW$961, DW_AT_TI_symbol_name("n0932_")
	.dwattr $C$DW$961, DW_AT_type(*$C$DW$T$10)
	.dwattr $C$DW$961, DW_AT_location[DW_OP_breg13 4812]

$C$DW$962	.dwtag  DW_TAG_variable
	.dwattr $C$DW$962, DW_AT_name("n0933_")
	.dwattr $C$DW$962, DW_AT_TI_symbol_name("n0933_")
	.dwattr $C$DW$962, DW_AT_type(*$C$DW$T$10)
	.dwattr $C$DW$962, DW_AT_location[DW_OP_breg13 4816]

$C$DW$963	.dwtag  DW_TAG_variable
	.dwattr $C$DW$963, DW_AT_name("n0934_")
	.dwattr $C$DW$963, DW_AT_TI_symbol_name("n0934_")
	.dwattr $C$DW$963, DW_AT_type(*$C$DW$T$10)
	.dwattr $C$DW$963, DW_AT_location[DW_OP_breg13 4820]

$C$DW$964	.dwtag  DW_TAG_variable
	.dwattr $C$DW$964, DW_AT_name("n0935_")
	.dwattr $C$DW$964, DW_AT_TI_symbol_name("n0935_")
	.dwattr $C$DW$964, DW_AT_type(*$C$DW$T$10)
	.dwattr $C$DW$964, DW_AT_location[DW_OP_breg13 4824]

$C$DW$965	.dwtag  DW_TAG_variable
	.dwattr $C$DW$965, DW_AT_name("n0936_")
	.dwattr $C$DW$965, DW_AT_TI_symbol_name("n0936_")
	.dwattr $C$DW$965, DW_AT_type(*$C$DW$T$10)
	.dwattr $C$DW$965, DW_AT_location[DW_OP_breg13 4828]

$C$DW$966	.dwtag  DW_TAG_variable
	.dwattr $C$DW$966, DW_AT_name("n0937_")
	.dwattr $C$DW$966, DW_AT_TI_symbol_name("n0937_")
	.dwattr $C$DW$966, DW_AT_type(*$C$DW$T$10)
	.dwattr $C$DW$966, DW_AT_location[DW_OP_breg13 4832]

$C$DW$967	.dwtag  DW_TAG_variable
	.dwattr $C$DW$967, DW_AT_name("n0938_")
	.dwattr $C$DW$967, DW_AT_TI_symbol_name("n0938_")
	.dwattr $C$DW$967, DW_AT_type(*$C$DW$T$10)
	.dwattr $C$DW$967, DW_AT_location[DW_OP_breg13 4836]

$C$DW$968	.dwtag  DW_TAG_variable
	.dwattr $C$DW$968, DW_AT_name("n0939_")
	.dwattr $C$DW$968, DW_AT_TI_symbol_name("n0939_")
	.dwattr $C$DW$968, DW_AT_type(*$C$DW$T$10)
	.dwattr $C$DW$968, DW_AT_location[DW_OP_breg13 4840]

$C$DW$969	.dwtag  DW_TAG_variable
	.dwattr $C$DW$969, DW_AT_name("n0940_")
	.dwattr $C$DW$969, DW_AT_TI_symbol_name("n0940_")
	.dwattr $C$DW$969, DW_AT_type(*$C$DW$T$10)
	.dwattr $C$DW$969, DW_AT_location[DW_OP_breg13 4844]

$C$DW$970	.dwtag  DW_TAG_variable
	.dwattr $C$DW$970, DW_AT_name("n0941_")
	.dwattr $C$DW$970, DW_AT_TI_symbol_name("n0941_")
	.dwattr $C$DW$970, DW_AT_type(*$C$DW$T$10)
	.dwattr $C$DW$970, DW_AT_location[DW_OP_breg13 4848]

$C$DW$971	.dwtag  DW_TAG_variable
	.dwattr $C$DW$971, DW_AT_name("n0942_")
	.dwattr $C$DW$971, DW_AT_TI_symbol_name("n0942_")
	.dwattr $C$DW$971, DW_AT_type(*$C$DW$T$10)
	.dwattr $C$DW$971, DW_AT_location[DW_OP_breg13 4852]

$C$DW$972	.dwtag  DW_TAG_variable
	.dwattr $C$DW$972, DW_AT_name("n0943_")
	.dwattr $C$DW$972, DW_AT_TI_symbol_name("n0943_")
	.dwattr $C$DW$972, DW_AT_type(*$C$DW$T$10)
	.dwattr $C$DW$972, DW_AT_location[DW_OP_breg13 4856]

$C$DW$973	.dwtag  DW_TAG_variable
	.dwattr $C$DW$973, DW_AT_name("n0944_")
	.dwattr $C$DW$973, DW_AT_TI_symbol_name("n0944_")
	.dwattr $C$DW$973, DW_AT_type(*$C$DW$T$10)
	.dwattr $C$DW$973, DW_AT_location[DW_OP_breg13 4860]

$C$DW$974	.dwtag  DW_TAG_variable
	.dwattr $C$DW$974, DW_AT_name("n0945_")
	.dwattr $C$DW$974, DW_AT_TI_symbol_name("n0945_")
	.dwattr $C$DW$974, DW_AT_type(*$C$DW$T$10)
	.dwattr $C$DW$974, DW_AT_location[DW_OP_breg13 4864]

$C$DW$975	.dwtag  DW_TAG_variable
	.dwattr $C$DW$975, DW_AT_name("n0946_")
	.dwattr $C$DW$975, DW_AT_TI_symbol_name("n0946_")
	.dwattr $C$DW$975, DW_AT_type(*$C$DW$T$10)
	.dwattr $C$DW$975, DW_AT_location[DW_OP_breg13 4868]

$C$DW$976	.dwtag  DW_TAG_variable
	.dwattr $C$DW$976, DW_AT_name("n0947_")
	.dwattr $C$DW$976, DW_AT_TI_symbol_name("n0947_")
	.dwattr $C$DW$976, DW_AT_type(*$C$DW$T$10)
	.dwattr $C$DW$976, DW_AT_location[DW_OP_breg13 4872]

$C$DW$977	.dwtag  DW_TAG_variable
	.dwattr $C$DW$977, DW_AT_name("n0948_")
	.dwattr $C$DW$977, DW_AT_TI_symbol_name("n0948_")
	.dwattr $C$DW$977, DW_AT_type(*$C$DW$T$10)
	.dwattr $C$DW$977, DW_AT_location[DW_OP_breg13 4876]

$C$DW$978	.dwtag  DW_TAG_variable
	.dwattr $C$DW$978, DW_AT_name("n0949_")
	.dwattr $C$DW$978, DW_AT_TI_symbol_name("n0949_")
	.dwattr $C$DW$978, DW_AT_type(*$C$DW$T$10)
	.dwattr $C$DW$978, DW_AT_location[DW_OP_breg13 4880]

$C$DW$979	.dwtag  DW_TAG_variable
	.dwattr $C$DW$979, DW_AT_name("n0950_")
	.dwattr $C$DW$979, DW_AT_TI_symbol_name("n0950_")
	.dwattr $C$DW$979, DW_AT_type(*$C$DW$T$10)
	.dwattr $C$DW$979, DW_AT_location[DW_OP_breg13 4884]

$C$DW$980	.dwtag  DW_TAG_variable
	.dwattr $C$DW$980, DW_AT_name("n0951_")
	.dwattr $C$DW$980, DW_AT_TI_symbol_name("n0951_")
	.dwattr $C$DW$980, DW_AT_type(*$C$DW$T$10)
	.dwattr $C$DW$980, DW_AT_location[DW_OP_breg13 4888]

$C$DW$981	.dwtag  DW_TAG_variable
	.dwattr $C$DW$981, DW_AT_name("n0952_")
	.dwattr $C$DW$981, DW_AT_TI_symbol_name("n0952_")
	.dwattr $C$DW$981, DW_AT_type(*$C$DW$T$10)
	.dwattr $C$DW$981, DW_AT_location[DW_OP_breg13 4892]

$C$DW$982	.dwtag  DW_TAG_variable
	.dwattr $C$DW$982, DW_AT_name("n0953_")
	.dwattr $C$DW$982, DW_AT_TI_symbol_name("n0953_")
	.dwattr $C$DW$982, DW_AT_type(*$C$DW$T$10)
	.dwattr $C$DW$982, DW_AT_location[DW_OP_breg13 4896]

$C$DW$983	.dwtag  DW_TAG_variable
	.dwattr $C$DW$983, DW_AT_name("n0954_")
	.dwattr $C$DW$983, DW_AT_TI_symbol_name("n0954_")
	.dwattr $C$DW$983, DW_AT_type(*$C$DW$T$10)
	.dwattr $C$DW$983, DW_AT_location[DW_OP_breg13 4900]

$C$DW$984	.dwtag  DW_TAG_variable
	.dwattr $C$DW$984, DW_AT_name("n0955_")
	.dwattr $C$DW$984, DW_AT_TI_symbol_name("n0955_")
	.dwattr $C$DW$984, DW_AT_type(*$C$DW$T$10)
	.dwattr $C$DW$984, DW_AT_location[DW_OP_breg13 4904]

$C$DW$985	.dwtag  DW_TAG_variable
	.dwattr $C$DW$985, DW_AT_name("n0956_")
	.dwattr $C$DW$985, DW_AT_TI_symbol_name("n0956_")
	.dwattr $C$DW$985, DW_AT_type(*$C$DW$T$10)
	.dwattr $C$DW$985, DW_AT_location[DW_OP_breg13 4908]

$C$DW$986	.dwtag  DW_TAG_variable
	.dwattr $C$DW$986, DW_AT_name("n0957_")
	.dwattr $C$DW$986, DW_AT_TI_symbol_name("n0957_")
	.dwattr $C$DW$986, DW_AT_type(*$C$DW$T$10)
	.dwattr $C$DW$986, DW_AT_location[DW_OP_breg13 4912]

$C$DW$987	.dwtag  DW_TAG_variable
	.dwattr $C$DW$987, DW_AT_name("n0958_")
	.dwattr $C$DW$987, DW_AT_TI_symbol_name("n0958_")
	.dwattr $C$DW$987, DW_AT_type(*$C$DW$T$10)
	.dwattr $C$DW$987, DW_AT_location[DW_OP_breg13 4916]

$C$DW$988	.dwtag  DW_TAG_variable
	.dwattr $C$DW$988, DW_AT_name("n0959_")
	.dwattr $C$DW$988, DW_AT_TI_symbol_name("n0959_")
	.dwattr $C$DW$988, DW_AT_type(*$C$DW$T$10)
	.dwattr $C$DW$988, DW_AT_location[DW_OP_breg13 4920]

$C$DW$989	.dwtag  DW_TAG_variable
	.dwattr $C$DW$989, DW_AT_name("n0960_")
	.dwattr $C$DW$989, DW_AT_TI_symbol_name("n0960_")
	.dwattr $C$DW$989, DW_AT_type(*$C$DW$T$10)
	.dwattr $C$DW$989, DW_AT_location[DW_OP_breg13 4924]

$C$DW$990	.dwtag  DW_TAG_variable
	.dwattr $C$DW$990, DW_AT_name("n0961_")
	.dwattr $C$DW$990, DW_AT_TI_symbol_name("n0961_")
	.dwattr $C$DW$990, DW_AT_type(*$C$DW$T$10)
	.dwattr $C$DW$990, DW_AT_location[DW_OP_breg13 4928]

$C$DW$991	.dwtag  DW_TAG_variable
	.dwattr $C$DW$991, DW_AT_name("n0962_")
	.dwattr $C$DW$991, DW_AT_TI_symbol_name("n0962_")
	.dwattr $C$DW$991, DW_AT_type(*$C$DW$T$10)
	.dwattr $C$DW$991, DW_AT_location[DW_OP_breg13 4932]

$C$DW$992	.dwtag  DW_TAG_variable
	.dwattr $C$DW$992, DW_AT_name("n0963_")
	.dwattr $C$DW$992, DW_AT_TI_symbol_name("n0963_")
	.dwattr $C$DW$992, DW_AT_type(*$C$DW$T$10)
	.dwattr $C$DW$992, DW_AT_location[DW_OP_breg13 4936]

$C$DW$993	.dwtag  DW_TAG_variable
	.dwattr $C$DW$993, DW_AT_name("n0964_")
	.dwattr $C$DW$993, DW_AT_TI_symbol_name("n0964_")
	.dwattr $C$DW$993, DW_AT_type(*$C$DW$T$10)
	.dwattr $C$DW$993, DW_AT_location[DW_OP_breg13 4940]

$C$DW$994	.dwtag  DW_TAG_variable
	.dwattr $C$DW$994, DW_AT_name("n0965_")
	.dwattr $C$DW$994, DW_AT_TI_symbol_name("n0965_")
	.dwattr $C$DW$994, DW_AT_type(*$C$DW$T$10)
	.dwattr $C$DW$994, DW_AT_location[DW_OP_breg13 4944]

$C$DW$995	.dwtag  DW_TAG_variable
	.dwattr $C$DW$995, DW_AT_name("n0966_")
	.dwattr $C$DW$995, DW_AT_TI_symbol_name("n0966_")
	.dwattr $C$DW$995, DW_AT_type(*$C$DW$T$10)
	.dwattr $C$DW$995, DW_AT_location[DW_OP_breg13 4948]

$C$DW$996	.dwtag  DW_TAG_variable
	.dwattr $C$DW$996, DW_AT_name("n0967_")
	.dwattr $C$DW$996, DW_AT_TI_symbol_name("n0967_")
	.dwattr $C$DW$996, DW_AT_type(*$C$DW$T$10)
	.dwattr $C$DW$996, DW_AT_location[DW_OP_breg13 4952]

$C$DW$997	.dwtag  DW_TAG_variable
	.dwattr $C$DW$997, DW_AT_name("n0968_")
	.dwattr $C$DW$997, DW_AT_TI_symbol_name("n0968_")
	.dwattr $C$DW$997, DW_AT_type(*$C$DW$T$10)
	.dwattr $C$DW$997, DW_AT_location[DW_OP_breg13 4956]

$C$DW$998	.dwtag  DW_TAG_variable
	.dwattr $C$DW$998, DW_AT_name("n0969_")
	.dwattr $C$DW$998, DW_AT_TI_symbol_name("n0969_")
	.dwattr $C$DW$998, DW_AT_type(*$C$DW$T$10)
	.dwattr $C$DW$998, DW_AT_location[DW_OP_breg13 4960]

$C$DW$999	.dwtag  DW_TAG_variable
	.dwattr $C$DW$999, DW_AT_name("n0970_")
	.dwattr $C$DW$999, DW_AT_TI_symbol_name("n0970_")
	.dwattr $C$DW$999, DW_AT_type(*$C$DW$T$10)
	.dwattr $C$DW$999, DW_AT_location[DW_OP_breg13 4964]

$C$DW$1000	.dwtag  DW_TAG_variable
	.dwattr $C$DW$1000, DW_AT_name("n0971_")
	.dwattr $C$DW$1000, DW_AT_TI_symbol_name("n0971_")
	.dwattr $C$DW$1000, DW_AT_type(*$C$DW$T$10)
	.dwattr $C$DW$1000, DW_AT_location[DW_OP_breg13 4968]

$C$DW$1001	.dwtag  DW_TAG_variable
	.dwattr $C$DW$1001, DW_AT_name("n0972_")
	.dwattr $C$DW$1001, DW_AT_TI_symbol_name("n0972_")
	.dwattr $C$DW$1001, DW_AT_type(*$C$DW$T$10)
	.dwattr $C$DW$1001, DW_AT_location[DW_OP_breg13 4972]

$C$DW$1002	.dwtag  DW_TAG_variable
	.dwattr $C$DW$1002, DW_AT_name("n0973_")
	.dwattr $C$DW$1002, DW_AT_TI_symbol_name("n0973_")
	.dwattr $C$DW$1002, DW_AT_type(*$C$DW$T$10)
	.dwattr $C$DW$1002, DW_AT_location[DW_OP_breg13 4976]

$C$DW$1003	.dwtag  DW_TAG_variable
	.dwattr $C$DW$1003, DW_AT_name("n0974_")
	.dwattr $C$DW$1003, DW_AT_TI_symbol_name("n0974_")
	.dwattr $C$DW$1003, DW_AT_type(*$C$DW$T$10)
	.dwattr $C$DW$1003, DW_AT_location[DW_OP_breg13 4980]

$C$DW$1004	.dwtag  DW_TAG_variable
	.dwattr $C$DW$1004, DW_AT_name("n0975_")
	.dwattr $C$DW$1004, DW_AT_TI_symbol_name("n0975_")
	.dwattr $C$DW$1004, DW_AT_type(*$C$DW$T$10)
	.dwattr $C$DW$1004, DW_AT_location[DW_OP_breg13 4984]

$C$DW$1005	.dwtag  DW_TAG_variable
	.dwattr $C$DW$1005, DW_AT_name("n0976_")
	.dwattr $C$DW$1005, DW_AT_TI_symbol_name("n0976_")
	.dwattr $C$DW$1005, DW_AT_type(*$C$DW$T$10)
	.dwattr $C$DW$1005, DW_AT_location[DW_OP_breg13 4988]

$C$DW$1006	.dwtag  DW_TAG_variable
	.dwattr $C$DW$1006, DW_AT_name("n0977_")
	.dwattr $C$DW$1006, DW_AT_TI_symbol_name("n0977_")
	.dwattr $C$DW$1006, DW_AT_type(*$C$DW$T$10)
	.dwattr $C$DW$1006, DW_AT_location[DW_OP_breg13 4992]

$C$DW$1007	.dwtag  DW_TAG_variable
	.dwattr $C$DW$1007, DW_AT_name("n0978_")
	.dwattr $C$DW$1007, DW_AT_TI_symbol_name("n0978_")
	.dwattr $C$DW$1007, DW_AT_type(*$C$DW$T$10)
	.dwattr $C$DW$1007, DW_AT_location[DW_OP_breg13 4996]

$C$DW$1008	.dwtag  DW_TAG_variable
	.dwattr $C$DW$1008, DW_AT_name("n0979_")
	.dwattr $C$DW$1008, DW_AT_TI_symbol_name("n0979_")
	.dwattr $C$DW$1008, DW_AT_type(*$C$DW$T$10)
	.dwattr $C$DW$1008, DW_AT_location[DW_OP_breg13 5000]

$C$DW$1009	.dwtag  DW_TAG_variable
	.dwattr $C$DW$1009, DW_AT_name("n0980_")
	.dwattr $C$DW$1009, DW_AT_TI_symbol_name("n0980_")
	.dwattr $C$DW$1009, DW_AT_type(*$C$DW$T$10)
	.dwattr $C$DW$1009, DW_AT_location[DW_OP_breg13 5004]

$C$DW$1010	.dwtag  DW_TAG_variable
	.dwattr $C$DW$1010, DW_AT_name("n0981_")
	.dwattr $C$DW$1010, DW_AT_TI_symbol_name("n0981_")
	.dwattr $C$DW$1010, DW_AT_type(*$C$DW$T$10)
	.dwattr $C$DW$1010, DW_AT_location[DW_OP_breg13 5008]

$C$DW$1011	.dwtag  DW_TAG_variable
	.dwattr $C$DW$1011, DW_AT_name("n0982_")
	.dwattr $C$DW$1011, DW_AT_TI_symbol_name("n0982_")
	.dwattr $C$DW$1011, DW_AT_type(*$C$DW$T$10)
	.dwattr $C$DW$1011, DW_AT_location[DW_OP_breg13 5012]

$C$DW$1012	.dwtag  DW_TAG_variable
	.dwattr $C$DW$1012, DW_AT_name("n0983_")
	.dwattr $C$DW$1012, DW_AT_TI_symbol_name("n0983_")
	.dwattr $C$DW$1012, DW_AT_type(*$C$DW$T$10)
	.dwattr $C$DW$1012, DW_AT_location[DW_OP_breg13 5016]

$C$DW$1013	.dwtag  DW_TAG_variable
	.dwattr $C$DW$1013, DW_AT_name("n0984_")
	.dwattr $C$DW$1013, DW_AT_TI_symbol_name("n0984_")
	.dwattr $C$DW$1013, DW_AT_type(*$C$DW$T$10)
	.dwattr $C$DW$1013, DW_AT_location[DW_OP_breg13 5020]

$C$DW$1014	.dwtag  DW_TAG_variable
	.dwattr $C$DW$1014, DW_AT_name("n0985_")
	.dwattr $C$DW$1014, DW_AT_TI_symbol_name("n0985_")
	.dwattr $C$DW$1014, DW_AT_type(*$C$DW$T$10)
	.dwattr $C$DW$1014, DW_AT_location[DW_OP_breg13 5024]

$C$DW$1015	.dwtag  DW_TAG_variable
	.dwattr $C$DW$1015, DW_AT_name("n0986_")
	.dwattr $C$DW$1015, DW_AT_TI_symbol_name("n0986_")
	.dwattr $C$DW$1015, DW_AT_type(*$C$DW$T$10)
	.dwattr $C$DW$1015, DW_AT_location[DW_OP_breg13 5028]

$C$DW$1016	.dwtag  DW_TAG_variable
	.dwattr $C$DW$1016, DW_AT_name("n0987_")
	.dwattr $C$DW$1016, DW_AT_TI_symbol_name("n0987_")
	.dwattr $C$DW$1016, DW_AT_type(*$C$DW$T$10)
	.dwattr $C$DW$1016, DW_AT_location[DW_OP_breg13 5032]

$C$DW$1017	.dwtag  DW_TAG_variable
	.dwattr $C$DW$1017, DW_AT_name("n0988_")
	.dwattr $C$DW$1017, DW_AT_TI_symbol_name("n0988_")
	.dwattr $C$DW$1017, DW_AT_type(*$C$DW$T$10)
	.dwattr $C$DW$1017, DW_AT_location[DW_OP_breg13 5036]

$C$DW$1018	.dwtag  DW_TAG_variable
	.dwattr $C$DW$1018, DW_AT_name("n0989_")
	.dwattr $C$DW$1018, DW_AT_TI_symbol_name("n0989_")
	.dwattr $C$DW$1018, DW_AT_type(*$C$DW$T$10)
	.dwattr $C$DW$1018, DW_AT_location[DW_OP_breg13 5040]

$C$DW$1019	.dwtag  DW_TAG_variable
	.dwattr $C$DW$1019, DW_AT_name("n0990_")
	.dwattr $C$DW$1019, DW_AT_TI_symbol_name("n0990_")
	.dwattr $C$DW$1019, DW_AT_type(*$C$DW$T$10)
	.dwattr $C$DW$1019, DW_AT_location[DW_OP_breg13 5044]

$C$DW$1020	.dwtag  DW_TAG_variable
	.dwattr $C$DW$1020, DW_AT_name("n0991_")
	.dwattr $C$DW$1020, DW_AT_TI_symbol_name("n0991_")
	.dwattr $C$DW$1020, DW_AT_type(*$C$DW$T$10)
	.dwattr $C$DW$1020, DW_AT_location[DW_OP_breg13 5048]

$C$DW$1021	.dwtag  DW_TAG_variable
	.dwattr $C$DW$1021, DW_AT_name("n0992_")
	.dwattr $C$DW$1021, DW_AT_TI_symbol_name("n0992_")
	.dwattr $C$DW$1021, DW_AT_type(*$C$DW$T$10)
	.dwattr $C$DW$1021, DW_AT_location[DW_OP_breg13 5052]

$C$DW$1022	.dwtag  DW_TAG_variable
	.dwattr $C$DW$1022, DW_AT_name("n0993_")
	.dwattr $C$DW$1022, DW_AT_TI_symbol_name("n0993_")
	.dwattr $C$DW$1022, DW_AT_type(*$C$DW$T$10)
	.dwattr $C$DW$1022, DW_AT_location[DW_OP_breg13 5056]

$C$DW$1023	.dwtag  DW_TAG_variable
	.dwattr $C$DW$1023, DW_AT_name("n0994_")
	.dwattr $C$DW$1023, DW_AT_TI_symbol_name("n0994_")
	.dwattr $C$DW$1023, DW_AT_type(*$C$DW$T$10)
	.dwattr $C$DW$1023, DW_AT_location[DW_OP_breg13 5060]

$C$DW$1024	.dwtag  DW_TAG_variable
	.dwattr $C$DW$1024, DW_AT_name("n0995_")
	.dwattr $C$DW$1024, DW_AT_TI_symbol_name("n0995_")
	.dwattr $C$DW$1024, DW_AT_type(*$C$DW$T$10)
	.dwattr $C$DW$1024, DW_AT_location[DW_OP_breg13 5064]

$C$DW$1025	.dwtag  DW_TAG_variable
	.dwattr $C$DW$1025, DW_AT_name("n0996_")
	.dwattr $C$DW$1025, DW_AT_TI_symbol_name("n0996_")
	.dwattr $C$DW$1025, DW_AT_type(*$C$DW$T$10)
	.dwattr $C$DW$1025, DW_AT_location[DW_OP_breg13 5068]

$C$DW$1026	.dwtag  DW_TAG_variable
	.dwattr $C$DW$1026, DW_AT_name("n0997_")
	.dwattr $C$DW$1026, DW_AT_TI_symbol_name("n0997_")
	.dwattr $C$DW$1026, DW_AT_type(*$C$DW$T$10)
	.dwattr $C$DW$1026, DW_AT_location[DW_OP_breg13 5072]

$C$DW$1027	.dwtag  DW_TAG_variable
	.dwattr $C$DW$1027, DW_AT_name("n0998_")
	.dwattr $C$DW$1027, DW_AT_TI_symbol_name("n0998_")
	.dwattr $C$DW$1027, DW_AT_type(*$C$DW$T$10)
	.dwattr $C$DW$1027, DW_AT_location[DW_OP_breg13 5076]

$C$DW$1028	.dwtag  DW_TAG_variable
	.dwattr $C$DW$1028, DW_AT_name("n0999_")
	.dwattr $C$DW$1028, DW_AT_TI_symbol_name("n0999_")
	.dwattr $C$DW$1028, DW_AT_type(*$C$DW$T$10)
	.dwattr $C$DW$1028, DW_AT_location[DW_OP_breg13 5080]

$C$DW$1029	.dwtag  DW_TAG_variable
	.dwattr $C$DW$1029, DW_AT_name("n1000_")
	.dwattr $C$DW$1029, DW_AT_TI_symbol_name("n1000_")
	.dwattr $C$DW$1029, DW_AT_type(*$C$DW$T$10)
	.dwattr $C$DW$1029, DW_AT_location[DW_OP_breg13 5084]

$C$DW$1030	.dwtag  DW_TAG_variable
	.dwattr $C$DW$1030, DW_AT_name("n1001_")
	.dwattr $C$DW$1030, DW_AT_TI_symbol_name("n1001_")
	.dwattr $C$DW$1030, DW_AT_type(*$C$DW$T$10)
	.dwattr $C$DW$1030, DW_AT_location[DW_OP_breg13 5088]

$C$DW$1031	.dwtag  DW_TAG_variable
	.dwattr $C$DW$1031, DW_AT_name("n1002_")
	.dwattr $C$DW$1031, DW_AT_TI_symbol_name("n1002_")
	.dwattr $C$DW$1031, DW_AT_type(*$C$DW$T$10)
	.dwattr $C$DW$1031, DW_AT_location[DW_OP_breg13 5092]

$C$DW$1032	.dwtag  DW_TAG_variable
	.dwattr $C$DW$1032, DW_AT_name("n1003_")
	.dwattr $C$DW$1032, DW_AT_TI_symbol_name("n1003_")
	.dwattr $C$DW$1032, DW_AT_type(*$C$DW$T$10)
	.dwattr $C$DW$1032, DW_AT_location[DW_OP_breg13 5096]

$C$DW$1033	.dwtag  DW_TAG_variable
	.dwattr $C$DW$1033, DW_AT_name("n1004_")
	.dwattr $C$DW$1033, DW_AT_TI_symbol_name("n1004_")
	.dwattr $C$DW$1033, DW_AT_type(*$C$DW$T$10)
	.dwattr $C$DW$1033, DW_AT_location[DW_OP_breg13 5100]

$C$DW$1034	.dwtag  DW_TAG_variable
	.dwattr $C$DW$1034, DW_AT_name("n1005_")
	.dwattr $C$DW$1034, DW_AT_TI_symbol_name("n1005_")
	.dwattr $C$DW$1034, DW_AT_type(*$C$DW$T$10)
	.dwattr $C$DW$1034, DW_AT_location[DW_OP_breg13 5104]

$C$DW$1035	.dwtag  DW_TAG_variable
	.dwattr $C$DW$1035, DW_AT_name("n1006_")
	.dwattr $C$DW$1035, DW_AT_TI_symbol_name("n1006_")
	.dwattr $C$DW$1035, DW_AT_type(*$C$DW$T$10)
	.dwattr $C$DW$1035, DW_AT_location[DW_OP_breg13 5108]

$C$DW$1036	.dwtag  DW_TAG_variable
	.dwattr $C$DW$1036, DW_AT_name("n1007_")
	.dwattr $C$DW$1036, DW_AT_TI_symbol_name("n1007_")
	.dwattr $C$DW$1036, DW_AT_type(*$C$DW$T$10)
	.dwattr $C$DW$1036, DW_AT_location[DW_OP_breg13 5112]

$C$DW$1037	.dwtag  DW_TAG_variable
	.dwattr $C$DW$1037, DW_AT_name("n1008_")
	.dwattr $C$DW$1037, DW_AT_TI_symbol_name("n1008_")
	.dwattr $C$DW$1037, DW_AT_type(*$C$DW$T$10)
	.dwattr $C$DW$1037, DW_AT_location[DW_OP_breg13 5116]

$C$DW$1038	.dwtag  DW_TAG_variable
	.dwattr $C$DW$1038, DW_AT_name("n1009_")
	.dwattr $C$DW$1038, DW_AT_TI_symbol_name("n1009_")
	.dwattr $C$DW$1038, DW_AT_type(*$C$DW$T$10)
	.dwattr $C$DW$1038, DW_AT_location[DW_OP_breg13 5120]

$C$DW$1039	.dwtag  DW_TAG_variable
	.dwattr $C$DW$1039, DW_AT_name("n1010_")
	.dwattr $C$DW$1039, DW_AT_TI_symbol_name("n1010_")
	.dwattr $C$DW$1039, DW_AT_type(*$C$DW$T$10)
	.dwattr $C$DW$1039, DW_AT_location[DW_OP_breg13 5124]

$C$DW$1040	.dwtag  DW_TAG_variable
	.dwattr $C$DW$1040, DW_AT_name("n1011_")
	.dwattr $C$DW$1040, DW_AT_TI_symbol_name("n1011_")
	.dwattr $C$DW$1040, DW_AT_type(*$C$DW$T$10)
	.dwattr $C$DW$1040, DW_AT_location[DW_OP_breg13 5128]

$C$DW$1041	.dwtag  DW_TAG_variable
	.dwattr $C$DW$1041, DW_AT_name("n1012_")
	.dwattr $C$DW$1041, DW_AT_TI_symbol_name("n1012_")
	.dwattr $C$DW$1041, DW_AT_type(*$C$DW$T$10)
	.dwattr $C$DW$1041, DW_AT_location[DW_OP_breg13 5132]

$C$DW$1042	.dwtag  DW_TAG_variable
	.dwattr $C$DW$1042, DW_AT_name("n1013_")
	.dwattr $C$DW$1042, DW_AT_TI_symbol_name("n1013_")
	.dwattr $C$DW$1042, DW_AT_type(*$C$DW$T$10)
	.dwattr $C$DW$1042, DW_AT_location[DW_OP_breg13 5136]

$C$DW$1043	.dwtag  DW_TAG_variable
	.dwattr $C$DW$1043, DW_AT_name("n1014_")
	.dwattr $C$DW$1043, DW_AT_TI_symbol_name("n1014_")
	.dwattr $C$DW$1043, DW_AT_type(*$C$DW$T$10)
	.dwattr $C$DW$1043, DW_AT_location[DW_OP_breg13 5140]

$C$DW$1044	.dwtag  DW_TAG_variable
	.dwattr $C$DW$1044, DW_AT_name("n1015_")
	.dwattr $C$DW$1044, DW_AT_TI_symbol_name("n1015_")
	.dwattr $C$DW$1044, DW_AT_type(*$C$DW$T$10)
	.dwattr $C$DW$1044, DW_AT_location[DW_OP_breg13 5144]

$C$DW$1045	.dwtag  DW_TAG_variable
	.dwattr $C$DW$1045, DW_AT_name("n1016_")
	.dwattr $C$DW$1045, DW_AT_TI_symbol_name("n1016_")
	.dwattr $C$DW$1045, DW_AT_type(*$C$DW$T$10)
	.dwattr $C$DW$1045, DW_AT_location[DW_OP_breg13 5148]

$C$DW$1046	.dwtag  DW_TAG_variable
	.dwattr $C$DW$1046, DW_AT_name("n1017_")
	.dwattr $C$DW$1046, DW_AT_TI_symbol_name("n1017_")
	.dwattr $C$DW$1046, DW_AT_type(*$C$DW$T$10)
	.dwattr $C$DW$1046, DW_AT_location[DW_OP_breg13 5152]

$C$DW$1047	.dwtag  DW_TAG_variable
	.dwattr $C$DW$1047, DW_AT_name("n1018_")
	.dwattr $C$DW$1047, DW_AT_TI_symbol_name("n1018_")
	.dwattr $C$DW$1047, DW_AT_type(*$C$DW$T$10)
	.dwattr $C$DW$1047, DW_AT_location[DW_OP_breg13 5156]

$C$DW$1048	.dwtag  DW_TAG_variable
	.dwattr $C$DW$1048, DW_AT_name("n1019_")
	.dwattr $C$DW$1048, DW_AT_TI_symbol_name("n1019_")
	.dwattr $C$DW$1048, DW_AT_type(*$C$DW$T$10)
	.dwattr $C$DW$1048, DW_AT_location[DW_OP_breg13 5160]

$C$DW$1049	.dwtag  DW_TAG_variable
	.dwattr $C$DW$1049, DW_AT_name("n1020_")
	.dwattr $C$DW$1049, DW_AT_TI_symbol_name("n1020_")
	.dwattr $C$DW$1049, DW_AT_type(*$C$DW$T$10)
	.dwattr $C$DW$1049, DW_AT_location[DW_OP_breg13 5164]

$C$DW$1050	.dwtag  DW_TAG_variable
	.dwattr $C$DW$1050, DW_AT_name("n1021_")
	.dwattr $C$DW$1050, DW_AT_TI_symbol_name("n1021_")
	.dwattr $C$DW$1050, DW_AT_type(*$C$DW$T$10)
	.dwattr $C$DW$1050, DW_AT_location[DW_OP_breg13 5168]

$C$DW$1051	.dwtag  DW_TAG_variable
	.dwattr $C$DW$1051, DW_AT_name("n1022_")
	.dwattr $C$DW$1051, DW_AT_TI_symbol_name("n1022_")
	.dwattr $C$DW$1051, DW_AT_type(*$C$DW$T$10)
	.dwattr $C$DW$1051, DW_AT_location[DW_OP_breg13 5172]

$C$DW$1052	.dwtag  DW_TAG_variable
	.dwattr $C$DW$1052, DW_AT_name("n1023_")
	.dwattr $C$DW$1052, DW_AT_TI_symbol_name("n1023_")
	.dwattr $C$DW$1052, DW_AT_type(*$C$DW$T$10)
	.dwattr $C$DW$1052, DW_AT_location[DW_OP_breg13 5176]

$C$DW$1053	.dwtag  DW_TAG_variable
	.dwattr $C$DW$1053, DW_AT_name("n1024_")
	.dwattr $C$DW$1053, DW_AT_TI_symbol_name("n1024_")
	.dwattr $C$DW$1053, DW_AT_type(*$C$DW$T$10)
	.dwattr $C$DW$1053, DW_AT_location[DW_OP_breg13 5180]

$C$DW$1054	.dwtag  DW_TAG_variable
	.dwattr $C$DW$1054, DW_AT_name("n1025_")
	.dwattr $C$DW$1054, DW_AT_TI_symbol_name("n1025_")
	.dwattr $C$DW$1054, DW_AT_type(*$C$DW$T$10)
	.dwattr $C$DW$1054, DW_AT_location[DW_OP_breg13 5184]

$C$DW$1055	.dwtag  DW_TAG_variable
	.dwattr $C$DW$1055, DW_AT_name("n1026_")
	.dwattr $C$DW$1055, DW_AT_TI_symbol_name("n1026_")
	.dwattr $C$DW$1055, DW_AT_type(*$C$DW$T$10)
	.dwattr $C$DW$1055, DW_AT_location[DW_OP_breg13 5188]

$C$DW$1056	.dwtag  DW_TAG_variable
	.dwattr $C$DW$1056, DW_AT_name("n1027_")
	.dwattr $C$DW$1056, DW_AT_TI_symbol_name("n1027_")
	.dwattr $C$DW$1056, DW_AT_type(*$C$DW$T$10)
	.dwattr $C$DW$1056, DW_AT_location[DW_OP_breg13 5192]

$C$DW$1057	.dwtag  DW_TAG_variable
	.dwattr $C$DW$1057, DW_AT_name("n1028_")
	.dwattr $C$DW$1057, DW_AT_TI_symbol_name("n1028_")
	.dwattr $C$DW$1057, DW_AT_type(*$C$DW$T$10)
	.dwattr $C$DW$1057, DW_AT_location[DW_OP_breg13 5196]

$C$DW$1058	.dwtag  DW_TAG_variable
	.dwattr $C$DW$1058, DW_AT_name("n1029_")
	.dwattr $C$DW$1058, DW_AT_TI_symbol_name("n1029_")
	.dwattr $C$DW$1058, DW_AT_type(*$C$DW$T$10)
	.dwattr $C$DW$1058, DW_AT_location[DW_OP_breg13 5200]

$C$DW$1059	.dwtag  DW_TAG_variable
	.dwattr $C$DW$1059, DW_AT_name("n1030_")
	.dwattr $C$DW$1059, DW_AT_TI_symbol_name("n1030_")
	.dwattr $C$DW$1059, DW_AT_type(*$C$DW$T$10)
	.dwattr $C$DW$1059, DW_AT_location[DW_OP_breg13 5204]

$C$DW$1060	.dwtag  DW_TAG_variable
	.dwattr $C$DW$1060, DW_AT_name("n1031_")
	.dwattr $C$DW$1060, DW_AT_TI_symbol_name("n1031_")
	.dwattr $C$DW$1060, DW_AT_type(*$C$DW$T$10)
	.dwattr $C$DW$1060, DW_AT_location[DW_OP_breg13 5208]

$C$DW$1061	.dwtag  DW_TAG_variable
	.dwattr $C$DW$1061, DW_AT_name("n1032_")
	.dwattr $C$DW$1061, DW_AT_TI_symbol_name("n1032_")
	.dwattr $C$DW$1061, DW_AT_type(*$C$DW$T$10)
	.dwattr $C$DW$1061, DW_AT_location[DW_OP_breg13 5212]

$C$DW$1062	.dwtag  DW_TAG_variable
	.dwattr $C$DW$1062, DW_AT_name("n1033_")
	.dwattr $C$DW$1062, DW_AT_TI_symbol_name("n1033_")
	.dwattr $C$DW$1062, DW_AT_type(*$C$DW$T$10)
	.dwattr $C$DW$1062, DW_AT_location[DW_OP_breg13 5216]

$C$DW$1063	.dwtag  DW_TAG_variable
	.dwattr $C$DW$1063, DW_AT_name("n1034_")
	.dwattr $C$DW$1063, DW_AT_TI_symbol_name("n1034_")
	.dwattr $C$DW$1063, DW_AT_type(*$C$DW$T$10)
	.dwattr $C$DW$1063, DW_AT_location[DW_OP_breg13 5220]

$C$DW$1064	.dwtag  DW_TAG_variable
	.dwattr $C$DW$1064, DW_AT_name("n1035_")
	.dwattr $C$DW$1064, DW_AT_TI_symbol_name("n1035_")
	.dwattr $C$DW$1064, DW_AT_type(*$C$DW$T$10)
	.dwattr $C$DW$1064, DW_AT_location[DW_OP_breg13 5224]

$C$DW$1065	.dwtag  DW_TAG_variable
	.dwattr $C$DW$1065, DW_AT_name("n1036_")
	.dwattr $C$DW$1065, DW_AT_TI_symbol_name("n1036_")
	.dwattr $C$DW$1065, DW_AT_type(*$C$DW$T$10)
	.dwattr $C$DW$1065, DW_AT_location[DW_OP_breg13 5228]

$C$DW$1066	.dwtag  DW_TAG_variable
	.dwattr $C$DW$1066, DW_AT_name("n1037_")
	.dwattr $C$DW$1066, DW_AT_TI_symbol_name("n1037_")
	.dwattr $C$DW$1066, DW_AT_type(*$C$DW$T$10)
	.dwattr $C$DW$1066, DW_AT_location[DW_OP_breg13 5232]

$C$DW$1067	.dwtag  DW_TAG_variable
	.dwattr $C$DW$1067, DW_AT_name("n1038_")
	.dwattr $C$DW$1067, DW_AT_TI_symbol_name("n1038_")
	.dwattr $C$DW$1067, DW_AT_type(*$C$DW$T$10)
	.dwattr $C$DW$1067, DW_AT_location[DW_OP_breg13 5236]

$C$DW$1068	.dwtag  DW_TAG_variable
	.dwattr $C$DW$1068, DW_AT_name("n1039_")
	.dwattr $C$DW$1068, DW_AT_TI_symbol_name("n1039_")
	.dwattr $C$DW$1068, DW_AT_type(*$C$DW$T$10)
	.dwattr $C$DW$1068, DW_AT_location[DW_OP_breg13 5240]

$C$DW$1069	.dwtag  DW_TAG_variable
	.dwattr $C$DW$1069, DW_AT_name("n1040_")
	.dwattr $C$DW$1069, DW_AT_TI_symbol_name("n1040_")
	.dwattr $C$DW$1069, DW_AT_type(*$C$DW$T$10)
	.dwattr $C$DW$1069, DW_AT_location[DW_OP_breg13 5244]

$C$DW$1070	.dwtag  DW_TAG_variable
	.dwattr $C$DW$1070, DW_AT_name("n1041_")
	.dwattr $C$DW$1070, DW_AT_TI_symbol_name("n1041_")
	.dwattr $C$DW$1070, DW_AT_type(*$C$DW$T$10)
	.dwattr $C$DW$1070, DW_AT_location[DW_OP_breg13 5248]

        STR       A4, [SP, #1092]       ; [DPU_V7M3_PIPE] |8| 
        STR       A3, [SP, #1088]       ; [DPU_V7M3_PIPE] |8| 
        STR       A2, [SP, #1084]       ; [DPU_V7M3_PIPE] |8| 
        STR       A1, [SP, #1080]       ; [DPU_V7M3_PIPE] |8| 
	.dwpsn	file "..\simon_clk.h",line 1085,column 3,is_stmt,isa 1
        LDR       A1, [SP, #1084]       ; [DPU_V7M3_PIPE] |1085| 
        MVNS      A1, A1                ; [DPU_V7M3_PIPE] |1085| 
        STR       A1, [SP, #3872]       ; [DPU_V7M3_PIPE] |1085| 
	.dwpsn	file "..\simon_clk.h",line 1086,column 3,is_stmt,isa 1
        LDR       A1, [SP, #1064]       ; [DPU_V7M3_PIPE] |1086| 
        MVNS      A1, A1                ; [DPU_V7M3_PIPE] |1086| 
        STR       A1, [SP, #3876]       ; [DPU_V7M3_PIPE] |1086| 
	.dwpsn	file "..\simon_clk.h",line 1087,column 3,is_stmt,isa 1
        LDR       A1, [SP, #1088]       ; [DPU_V7M3_PIPE] |1087| 
        MVNS      A1, A1                ; [DPU_V7M3_PIPE] |1087| 
        STR       A1, [SP, #3880]       ; [DPU_V7M3_PIPE] |1087| 
	.dwpsn	file "..\simon_clk.h",line 1088,column 3,is_stmt,isa 1
        LDR       A2, [SP, #1056]       ; [DPU_V7M3_PIPE] |1088| 
        LDR       A1, [SP, #1052]       ; [DPU_V7M3_PIPE] |1088| 
        ANDS      A1, A1, A2            ; [DPU_V7M3_PIPE] |1088| 
        STR       A1, [SP, #3884]       ; [DPU_V7M3_PIPE] |1088| 
	.dwpsn	file "..\simon_clk.h",line 1089,column 3,is_stmt,isa 1
        LDR       A1, [SP, #1052]       ; [DPU_V7M3_PIPE] |1089| 
        LDR       A2, [SP, #1056]       ; [DPU_V7M3_PIPE] |1089| 
        ORRS      A1, A1, A2            ; [DPU_V7M3_PIPE] |1089| 
        STR       A1, [SP, #3888]       ; [DPU_V7M3_PIPE] |1089| 
	.dwpsn	file "..\simon_clk.h",line 1090,column 3,is_stmt,isa 1
        LDR       A1, [SP, #3888]       ; [DPU_V7M3_PIPE] |1090| 
        LDR       A2, [SP, #3872]       ; [DPU_V7M3_PIPE] |1090| 
        ANDS      A1, A1, A2            ; [DPU_V7M3_PIPE] |1090| 
        STR       A1, [SP, #3892]       ; [DPU_V7M3_PIPE] |1090| 
	.dwpsn	file "..\simon_clk.h",line 1091,column 3,is_stmt,isa 1
        LDR       A1, [SP, #3892]       ; [DPU_V7M3_PIPE] |1091| 
        LDR       A2, [SP, #3884]       ; [DPU_V7M3_PIPE] |1091| 
        BICS      A1, A1, A2            ; [DPU_V7M3_PIPE] |1091| 
        STR       A1, [SP, #1028]       ; [DPU_V7M3_PIPE] |1091| 
	.dwpsn	file "..\simon_clk.h",line 1092,column 3,is_stmt,isa 1
        LDR       A2, [SP, #1060]       ; [DPU_V7M3_PIPE] |1092| 
        LDR       A1, [SP, #3884]       ; [DPU_V7M3_PIPE] |1092| 
        ANDS      A1, A1, A2            ; [DPU_V7M3_PIPE] |1092| 
        STR       A1, [SP, #3896]       ; [DPU_V7M3_PIPE] |1092| 
	.dwpsn	file "..\simon_clk.h",line 1093,column 3,is_stmt,isa 1
        LDR       A2, [SP, #1060]       ; [DPU_V7M3_PIPE] |1093| 
        LDR       A1, [SP, #3884]       ; [DPU_V7M3_PIPE] |1093| 
        ORRS      A1, A1, A2            ; [DPU_V7M3_PIPE] |1093| 
        STR       A1, [SP, #3900]       ; [DPU_V7M3_PIPE] |1093| 
	.dwpsn	file "..\simon_clk.h",line 1094,column 3,is_stmt,isa 1
        LDR       A1, [SP, #3900]       ; [DPU_V7M3_PIPE] |1094| 
        LDR       A2, [SP, #3872]       ; [DPU_V7M3_PIPE] |1094| 
        ANDS      A1, A1, A2            ; [DPU_V7M3_PIPE] |1094| 
        STR       A1, [SP, #3904]       ; [DPU_V7M3_PIPE] |1094| 
	.dwpsn	file "..\simon_clk.h",line 1095,column 3,is_stmt,isa 1
        LDR       A1, [SP, #3904]       ; [DPU_V7M3_PIPE] |1095| 
        LDR       A2, [SP, #3896]       ; [DPU_V7M3_PIPE] |1095| 
        BICS      A1, A1, A2            ; [DPU_V7M3_PIPE] |1095| 
        STR       A1, [SP, #1032]       ; [DPU_V7M3_PIPE] |1095| 
	.dwpsn	file "..\simon_clk.h",line 1096,column 3,is_stmt,isa 1
        LDR       A2, [SP, #1064]       ; [DPU_V7M3_PIPE] |1096| 
        LDR       A1, [SP, #3896]       ; [DPU_V7M3_PIPE] |1096| 
        ANDS      A1, A1, A2            ; [DPU_V7M3_PIPE] |1096| 
        STR       A1, [SP, #3908]       ; [DPU_V7M3_PIPE] |1096| 
	.dwpsn	file "..\simon_clk.h",line 1097,column 3,is_stmt,isa 1
        LDR       A2, [SP, #1064]       ; [DPU_V7M3_PIPE] |1097| 
        LDR       A1, [SP, #3896]       ; [DPU_V7M3_PIPE] |1097| 
        ORRS      A1, A1, A2            ; [DPU_V7M3_PIPE] |1097| 
        STR       A1, [SP, #3912]       ; [DPU_V7M3_PIPE] |1097| 
	.dwpsn	file "..\simon_clk.h",line 1098,column 3,is_stmt,isa 1
        LDR       A1, [SP, #3912]       ; [DPU_V7M3_PIPE] |1098| 
        LDR       A2, [SP, #3872]       ; [DPU_V7M3_PIPE] |1098| 
        ANDS      A1, A1, A2            ; [DPU_V7M3_PIPE] |1098| 
        STR       A1, [SP, #3916]       ; [DPU_V7M3_PIPE] |1098| 
	.dwpsn	file "..\simon_clk.h",line 1099,column 3,is_stmt,isa 1
        LDR       A1, [SP, #3916]       ; [DPU_V7M3_PIPE] |1099| 
        LDR       A2, [SP, #3908]       ; [DPU_V7M3_PIPE] |1099| 
        BICS      A1, A1, A2            ; [DPU_V7M3_PIPE] |1099| 
        STR       A1, [SP, #1036]       ; [DPU_V7M3_PIPE] |1099| 
	.dwpsn	file "..\simon_clk.h",line 1100,column 3,is_stmt,isa 1
        LDR       A2, [SP, #1068]       ; [DPU_V7M3_PIPE] |1100| 
        LDR       A1, [SP, #3908]       ; [DPU_V7M3_PIPE] |1100| 
        ANDS      A1, A1, A2            ; [DPU_V7M3_PIPE] |1100| 
        STR       A1, [SP, #3920]       ; [DPU_V7M3_PIPE] |1100| 
	.dwpsn	file "..\simon_clk.h",line 1101,column 3,is_stmt,isa 1
        LDR       A2, [SP, #1068]       ; [DPU_V7M3_PIPE] |1101| 
        LDR       A1, [SP, #3908]       ; [DPU_V7M3_PIPE] |1101| 
        ORRS      A1, A1, A2            ; [DPU_V7M3_PIPE] |1101| 
        STR       A1, [SP, #3924]       ; [DPU_V7M3_PIPE] |1101| 
	.dwpsn	file "..\simon_clk.h",line 1102,column 3,is_stmt,isa 1
        LDR       A1, [SP, #3924]       ; [DPU_V7M3_PIPE] |1102| 
        LDR       A2, [SP, #3872]       ; [DPU_V7M3_PIPE] |1102| 
        ANDS      A1, A1, A2            ; [DPU_V7M3_PIPE] |1102| 
        STR       A1, [SP, #3928]       ; [DPU_V7M3_PIPE] |1102| 
	.dwpsn	file "..\simon_clk.h",line 1103,column 3,is_stmt,isa 1
        LDR       A1, [SP, #3928]       ; [DPU_V7M3_PIPE] |1103| 
        LDR       A2, [SP, #3920]       ; [DPU_V7M3_PIPE] |1103| 
        BICS      A1, A1, A2            ; [DPU_V7M3_PIPE] |1103| 
        STR       A1, [SP, #1040]       ; [DPU_V7M3_PIPE] |1103| 
	.dwpsn	file "..\simon_clk.h",line 1104,column 3,is_stmt,isa 1
        LDR       A2, [SP, #1072]       ; [DPU_V7M3_PIPE] |1104| 
        LDR       A1, [SP, #3920]       ; [DPU_V7M3_PIPE] |1104| 
        ANDS      A1, A1, A2            ; [DPU_V7M3_PIPE] |1104| 
        STR       A1, [SP, #3932]       ; [DPU_V7M3_PIPE] |1104| 
	.dwpsn	file "..\simon_clk.h",line 1105,column 3,is_stmt,isa 1
        LDR       A2, [SP, #1072]       ; [DPU_V7M3_PIPE] |1105| 
        LDR       A1, [SP, #3920]       ; [DPU_V7M3_PIPE] |1105| 
        ORRS      A1, A1, A2            ; [DPU_V7M3_PIPE] |1105| 
        STR       A1, [SP, #3936]       ; [DPU_V7M3_PIPE] |1105| 
	.dwpsn	file "..\simon_clk.h",line 1106,column 3,is_stmt,isa 1
        LDR       A1, [SP, #3936]       ; [DPU_V7M3_PIPE] |1106| 
